
GLCD_SHT10.elf:     file format elf32-avr

Sections:
Idx Name          Size      VMA       LMA       File off  Algn
  0 .text         000028f4  00000000  00000000  00000094  2**1
                  CONTENTS, ALLOC, LOAD, READONLY, CODE
  1 .data         000002e6  00800060  000028f4  00002988  2**0
                  CONTENTS, ALLOC, LOAD, DATA
  2 .bss          00000082  00800346  00800346  00002c6e  2**0
                  ALLOC
  3 .comment      0000005c  00000000  00000000  00002c6e  2**0
                  CONTENTS, READONLY
  4 .note.gnu.avr.deviceinfo 0000003c  00000000  00000000  00002ccc  2**2
                  CONTENTS, READONLY
  5 .debug_aranges 00000140  00000000  00000000  00002d08  2**0
                  CONTENTS, READONLY, DEBUGGING
  6 .debug_info   00003d26  00000000  00000000  00002e48  2**0
                  CONTENTS, READONLY, DEBUGGING
  7 .debug_abbrev 000008ed  00000000  00000000  00006b6e  2**0
                  CONTENTS, READONLY, DEBUGGING
  8 .debug_line   000016c0  00000000  00000000  0000745b  2**0
                  CONTENTS, READONLY, DEBUGGING
  9 .debug_frame  000004c4  00000000  00000000  00008b1c  2**2
                  CONTENTS, READONLY, DEBUGGING
 10 .debug_str    000009b6  00000000  00000000  00008fe0  2**0
                  CONTENTS, READONLY, DEBUGGING
 11 .debug_loc    00001ed4  00000000  00000000  00009996  2**0
                  CONTENTS, READONLY, DEBUGGING
 12 .debug_ranges 00000148  00000000  00000000  0000b86a  2**0
                  CONTENTS, READONLY, DEBUGGING

Disassembly of section .text:

00000000 <__vectors>:
       0:	0c 94 a7 00 	jmp	0x14e	; 0x14e <__ctors_end>
       4:	0c 94 c4 00 	jmp	0x188	; 0x188 <__bad_interrupt>
       8:	0c 94 c4 00 	jmp	0x188	; 0x188 <__bad_interrupt>
       c:	0c 94 c4 00 	jmp	0x188	; 0x188 <__bad_interrupt>
      10:	0c 94 c4 00 	jmp	0x188	; 0x188 <__bad_interrupt>
      14:	0c 94 c4 00 	jmp	0x188	; 0x188 <__bad_interrupt>
      18:	0c 94 c4 00 	jmp	0x188	; 0x188 <__bad_interrupt>
      1c:	0c 94 97 02 	jmp	0x52e	; 0x52e <__vector_7>
      20:	0c 94 c4 00 	jmp	0x188	; 0x188 <__bad_interrupt>
      24:	0c 94 c4 00 	jmp	0x188	; 0x188 <__bad_interrupt>
      28:	0c 94 c4 00 	jmp	0x188	; 0x188 <__bad_interrupt>
      2c:	0c 94 c4 00 	jmp	0x188	; 0x188 <__bad_interrupt>
      30:	0c 94 c4 00 	jmp	0x188	; 0x188 <__bad_interrupt>
      34:	0c 94 c4 00 	jmp	0x188	; 0x188 <__bad_interrupt>
      38:	0c 94 c4 00 	jmp	0x188	; 0x188 <__bad_interrupt>
      3c:	0c 94 c4 00 	jmp	0x188	; 0x188 <__bad_interrupt>
      40:	0c 94 c4 00 	jmp	0x188	; 0x188 <__bad_interrupt>
      44:	0c 94 c4 00 	jmp	0x188	; 0x188 <__bad_interrupt>
      48:	0c 94 c4 00 	jmp	0x188	; 0x188 <__bad_interrupt>
      4c:	0c 94 c4 00 	jmp	0x188	; 0x188 <__bad_interrupt>
      50:	0c 94 c4 00 	jmp	0x188	; 0x188 <__bad_interrupt>

00000054 <__trampolines_end>:
      54:	00 40       	sbci	r16, 0x00	; 0
      56:	7a 10       	cpse	r7, r10
      58:	f3 5a       	subi	r31, 0xA3	; 163
      5a:	00 a0       	ldd	r0, Z+32	; 0x20
      5c:	72 4e       	sbci	r23, 0xE2	; 226
      5e:	18 09       	sbc	r17, r8
      60:	00 10       	cpse	r0, r0
      62:	a5 d4       	rcall	.+2378   	; 0x9ae <_Z10glcd_clearv+0x26>
      64:	e8 00       	.word	0x00e8	; ????
      66:	00 e8       	ldi	r16, 0x80	; 128
      68:	76 48       	sbci	r23, 0x86	; 134
      6a:	17 00       	.word	0x0017	; ????
      6c:	00 e4       	ldi	r16, 0x40	; 64
      6e:	0b 54       	subi	r16, 0x4B	; 75
      70:	02 00       	.word	0x0002	; ????
      72:	00 ca       	rjmp	.-3072   	; 0xfffff474 <__eeprom_end+0xff7ef474>
      74:	9a 3b       	cpi	r25, 0xBA	; 186
      76:	00 00       	nop
      78:	00 e1       	ldi	r16, 0x10	; 16
      7a:	f5 05       	cpc	r31, r5
      7c:	00 00       	nop
      7e:	80 96       	adiw	r24, 0x20	; 32
      80:	98 00       	.word	0x0098	; ????
      82:	00 00       	nop
      84:	40 42       	sbci	r20, 0x20	; 32
      86:	0f 00       	.word	0x000f	; ????
      88:	00 00       	nop
      8a:	a0 86       	std	Z+8, r10	; 0x08
      8c:	01 00       	.word	0x0001	; ????
      8e:	00 00       	nop
      90:	10 27       	eor	r17, r16
      92:	00 00       	nop
      94:	00 00       	nop
      96:	e8 03       	fmulsu	r22, r16
      98:	00 00       	nop
      9a:	00 00       	nop
      9c:	64 00       	.word	0x0064	; ????
      9e:	00 00       	nop
      a0:	00 00       	nop
      a2:	0a 00       	.word	0x000a	; ????
      a4:	00 00       	nop
      a6:	00 00       	nop
      a8:	01 00       	.word	0x0001	; ????
      aa:	00 00       	nop
      ac:	00 00       	nop
      ae:	2c 76       	andi	r18, 0x6C	; 108
      b0:	d8 88       	ldd	r13, Y+16	; 0x10
      b2:	dc 67       	ori	r29, 0x7C	; 124
      b4:	4f 08       	sbc	r4, r15
      b6:	23 df       	rcall	.-442    	; 0xfffffefe <__eeprom_end+0xff7efefe>
      b8:	c1 df       	rcall	.-126    	; 0x3c <__FUSE_REGION_LENGTH__+0x3a>
      ba:	ae 59       	subi	r26, 0x9E	; 158
      bc:	e1 b1       	in	r30, 0x01	; 1
      be:	b7 96       	adiw	r30, 0x27	; 39
      c0:	e5 e3       	ldi	r30, 0x35	; 53
      c2:	e4 53       	subi	r30, 0x34	; 52
      c4:	c6 3a       	cpi	r28, 0xA6	; 166
      c6:	e6 51       	subi	r30, 0x16	; 22
      c8:	99 76       	andi	r25, 0x69	; 105
      ca:	96 e8       	ldi	r25, 0x86	; 134
      cc:	e6 c2       	rjmp	.+1484   	; 0x69a <__vector_7+0x16c>
      ce:	84 26       	eor	r8, r20
      d0:	eb 89       	ldd	r30, Y+19	; 0x13
      d2:	8c 9b       	sbis	0x11, 4	; 17
      d4:	62 ed       	ldi	r22, 0xD2	; 210
      d6:	40 7c       	andi	r20, 0xC0	; 192
      d8:	6f fc       	.word	0xfc6f	; ????
      da:	ef bc       	out	0x2f, r14	; 47
      dc:	9c 9f       	mul	r25, r28
      de:	40 f2       	brcs	.-112    	; 0x70 <__trampolines_end+0x1c>
      e0:	ba a5       	ldd	r27, Y+42	; 0x2a
      e2:	6f a5       	ldd	r22, Y+47	; 0x2f
      e4:	f4 90       	lpm	r15, Z
      e6:	05 5a       	subi	r16, 0xA5	; 165
      e8:	2a f7       	brpl	.-54     	; 0xb4 <__trampolines_end+0x60>
      ea:	5c 93       	st	X, r21
      ec:	6b 6c       	ori	r22, 0xCB	; 203
      ee:	f9 67       	ori	r31, 0x79	; 121
      f0:	6d c1       	rjmp	.+730    	; 0x3cc <_Z9read_datav+0x28>
      f2:	1b fc       	.word	0xfc1b	; ????
      f4:	e0 e4       	ldi	r30, 0x40	; 64
      f6:	0d 47       	sbci	r16, 0x7D	; 125
      f8:	fe f5       	brtc	.+126    	; 0x178 <.do_clear_bss_loop>
      fa:	20 e6       	ldi	r18, 0x60	; 96
      fc:	b5 00       	.word	0x00b5	; ????
      fe:	d0 ed       	ldi	r29, 0xD0	; 208
     100:	90 2e       	mov	r9, r16
     102:	03 00       	.word	0x0003	; ????
     104:	94 35       	cpi	r25, 0x54	; 84
     106:	77 05       	cpc	r23, r7
     108:	00 80       	ld	r0, Z
     10a:	84 1e       	adc	r8, r20
     10c:	08 00       	.word	0x0008	; ????
     10e:	00 20       	and	r0, r0
     110:	4e 0a       	sbc	r4, r30
     112:	00 00       	nop
     114:	00 c8       	rjmp	.-4096   	; 0xfffff116 <__eeprom_end+0xff7ef116>
     116:	0c 33       	cpi	r16, 0x3C	; 60
     118:	33 33       	cpi	r19, 0x33	; 51
     11a:	33 0f       	add	r19, r19
     11c:	98 6e       	ori	r25, 0xE8	; 232
     11e:	12 83       	std	Z+2, r17	; 0x02
     120:	11 41       	sbci	r17, 0x11	; 17
     122:	ef 8d       	ldd	r30, Y+31	; 0x1f
     124:	21 14       	cp	r2, r1
     126:	89 3b       	cpi	r24, 0xB9	; 185
     128:	e6 55       	subi	r30, 0x56	; 86
     12a:	16 cf       	rjmp	.-468    	; 0xffffff58 <__eeprom_end+0xff7eff58>
     12c:	fe e6       	ldi	r31, 0x6E	; 110
     12e:	db 18       	sub	r13, r11
     130:	d1 84       	ldd	r13, Z+9	; 0x09
     132:	4b 38       	cpi	r20, 0x8B	; 139
     134:	1b f7       	brvc	.-58     	; 0xfc <__trampolines_end+0xa8>
     136:	7c 1d       	adc	r23, r12
     138:	90 1d       	adc	r25, r0
     13a:	a4 bb       	out	0x14, r26	; 20
     13c:	e4 24       	eor	r14, r4
     13e:	20 32       	cpi	r18, 0x20	; 32
     140:	84 72       	andi	r24, 0x24	; 36
     142:	5e 22       	and	r5, r30
     144:	81 00       	.word	0x0081	; ????
     146:	c9 f1       	breq	.+114    	; 0x1ba <_Z22initialize_transmissonv+0x2e>
     148:	24 ec       	ldi	r18, 0xC4	; 196
     14a:	a1 e5       	ldi	r26, 0x51	; 81
     14c:	3d 27       	eor	r19, r29

0000014e <__ctors_end>:
     14e:	11 24       	eor	r1, r1
     150:	1f be       	out	0x3f, r1	; 63
     152:	cf e5       	ldi	r28, 0x5F	; 95
     154:	d8 e0       	ldi	r29, 0x08	; 8
     156:	de bf       	out	0x3e, r29	; 62
     158:	cd bf       	out	0x3d, r28	; 61

0000015a <__do_copy_data>:
     15a:	13 e0       	ldi	r17, 0x03	; 3
     15c:	a0 e6       	ldi	r26, 0x60	; 96
     15e:	b0 e0       	ldi	r27, 0x00	; 0
     160:	e4 ef       	ldi	r30, 0xF4	; 244
     162:	f8 e2       	ldi	r31, 0x28	; 40
     164:	02 c0       	rjmp	.+4      	; 0x16a <__do_copy_data+0x10>
     166:	05 90       	lpm	r0, Z+
     168:	0d 92       	st	X+, r0
     16a:	a6 34       	cpi	r26, 0x46	; 70
     16c:	b1 07       	cpc	r27, r17
     16e:	d9 f7       	brne	.-10     	; 0x166 <__do_copy_data+0xc>

00000170 <__do_clear_bss>:
     170:	23 e0       	ldi	r18, 0x03	; 3
     172:	a6 e4       	ldi	r26, 0x46	; 70
     174:	b3 e0       	ldi	r27, 0x03	; 3
     176:	01 c0       	rjmp	.+2      	; 0x17a <.do_clear_bss_start>

00000178 <.do_clear_bss_loop>:
     178:	1d 92       	st	X+, r1

0000017a <.do_clear_bss_start>:
     17a:	a8 3c       	cpi	r26, 0xC8	; 200
     17c:	b2 07       	cpc	r27, r18
     17e:	e1 f7       	brne	.-8      	; 0x178 <.do_clear_bss_loop>
     180:	0e 94 53 07 	call	0xea6	; 0xea6 <main>
     184:	0c 94 78 14 	jmp	0x28f0	; 0x28f0 <_exit>

00000188 <__bad_interrupt>:
     188:	0c 94 00 00 	jmp	0	; 0x0 <__vectors>

0000018c <_Z22initialize_transmissonv>:
{
	DS1307_Write(DAYREG, (Decimal_To_BCD(daySet)));
	DS1307_Write(DATEREG, (Decimal_To_BCD(dateSet)));
	DS1307_Write(MONTHREG, (Decimal_To_BCD(monthSet)));
	DS1307_Write(YEARREG, (Decimal_To_BCD(yearSet % 100)));
}
     18c:	83 e0       	ldi	r24, 0x03	; 3
     18e:	81 bb       	out	0x11, r24	; 17
     190:	90 9a       	sbi	0x12, 0	; 18
     192:	8a e0       	ldi	r24, 0x0A	; 10
     194:	8a 95       	dec	r24
     196:	f1 f7       	brne	.-4      	; 0x194 <_Z22initialize_transmissonv+0x8>
     198:	00 c0       	rjmp	.+0      	; 0x19a <_Z22initialize_transmissonv+0xe>
     19a:	91 9a       	sbi	0x12, 1	; 18
     19c:	8a e0       	ldi	r24, 0x0A	; 10
     19e:	8a 95       	dec	r24
     1a0:	f1 f7       	brne	.-4      	; 0x19e <_Z22initialize_transmissonv+0x12>
     1a2:	00 c0       	rjmp	.+0      	; 0x1a4 <_Z22initialize_transmissonv+0x18>
     1a4:	90 98       	cbi	0x12, 0	; 18
     1a6:	8a e0       	ldi	r24, 0x0A	; 10
     1a8:	8a 95       	dec	r24
     1aa:	f1 f7       	brne	.-4      	; 0x1a8 <_Z22initialize_transmissonv+0x1c>
     1ac:	00 c0       	rjmp	.+0      	; 0x1ae <_Z22initialize_transmissonv+0x22>
     1ae:	91 98       	cbi	0x12, 1	; 18
     1b0:	8a e2       	ldi	r24, 0x2A	; 42
     1b2:	8a 95       	dec	r24
     1b4:	f1 f7       	brne	.-4      	; 0x1b2 <_Z22initialize_transmissonv+0x26>
     1b6:	00 c0       	rjmp	.+0      	; 0x1b8 <_Z22initialize_transmissonv+0x2c>
     1b8:	91 9a       	sbi	0x12, 1	; 18
     1ba:	8a e0       	ldi	r24, 0x0A	; 10
     1bc:	8a 95       	dec	r24
     1be:	f1 f7       	brne	.-4      	; 0x1bc <_Z22initialize_transmissonv+0x30>
     1c0:	00 c0       	rjmp	.+0      	; 0x1c2 <_Z22initialize_transmissonv+0x36>
     1c2:	90 9a       	sbi	0x12, 0	; 18
     1c4:	8a e0       	ldi	r24, 0x0A	; 10
     1c6:	8a 95       	dec	r24
     1c8:	f1 f7       	brne	.-4      	; 0x1c6 <_Z22initialize_transmissonv+0x3a>
     1ca:	00 c0       	rjmp	.+0      	; 0x1cc <_Z22initialize_transmissonv+0x40>
     1cc:	91 98       	cbi	0x12, 1	; 18
     1ce:	08 95       	ret

000001d0 <_Z12send_commandh>:
     1d0:	45 e1       	ldi	r20, 0x15	; 21
     1d2:	4a 95       	dec	r20
     1d4:	f1 f7       	brne	.-4      	; 0x1d2 <_Z12send_commandh+0x2>
     1d6:	00 00       	nop
     1d8:	93 e0       	ldi	r25, 0x03	; 3
     1da:	91 bb       	out	0x11, r25	; 17
     1dc:	27 e0       	ldi	r18, 0x07	; 7
     1de:	30 e0       	ldi	r19, 0x00	; 0
     1e0:	90 e0       	ldi	r25, 0x00	; 0
     1e2:	ac 01       	movw	r20, r24
     1e4:	02 2e       	mov	r0, r18
     1e6:	02 c0       	rjmp	.+4      	; 0x1ec <_Z12send_commandh+0x1c>
     1e8:	55 95       	asr	r21
     1ea:	47 95       	ror	r20
     1ec:	0a 94       	dec	r0
     1ee:	e2 f7       	brpl	.-8      	; 0x1e8 <_Z12send_commandh+0x18>
     1f0:	40 ff       	sbrs	r20, 0
     1f2:	02 c0       	rjmp	.+4      	; 0x1f8 <_Z12send_commandh+0x28>
     1f4:	90 9a       	sbi	0x12, 0	; 18
     1f6:	01 c0       	rjmp	.+2      	; 0x1fa <_Z12send_commandh+0x2a>
     1f8:	90 98       	cbi	0x12, 0	; 18
     1fa:	45 e1       	ldi	r20, 0x15	; 21
     1fc:	4a 95       	dec	r20
     1fe:	f1 f7       	brne	.-4      	; 0x1fc <_Z12send_commandh+0x2c>
     200:	00 00       	nop
     202:	91 9a       	sbi	0x12, 1	; 18
     204:	45 e1       	ldi	r20, 0x15	; 21
     206:	4a 95       	dec	r20
     208:	f1 f7       	brne	.-4      	; 0x206 <_Z12send_commandh+0x36>
     20a:	00 00       	nop
     20c:	91 98       	cbi	0x12, 1	; 18
     20e:	21 15       	cp	r18, r1
     210:	31 05       	cpc	r19, r1
     212:	31 f4       	brne	.+12     	; 0x220 <_Z12send_commandh+0x50>
     214:	8e ef       	ldi	r24, 0xFE	; 254
     216:	81 bb       	out	0x11, r24	; 17
     218:	90 9a       	sbi	0x12, 0	; 18
     21a:	80 99       	sbic	0x10, 0	; 16
     21c:	fe cf       	rjmp	.-4      	; 0x21a <_Z12send_commandh+0x4a>
     21e:	03 c0       	rjmp	.+6      	; 0x226 <_Z12send_commandh+0x56>
     220:	21 50       	subi	r18, 0x01	; 1
     222:	31 09       	sbc	r19, r1
     224:	f0 f6       	brcc	.-68     	; 0x1e2 <_Z12send_commandh+0x12>
     226:	85 e1       	ldi	r24, 0x15	; 21
     228:	8a 95       	dec	r24
     22a:	f1 f7       	brne	.-4      	; 0x228 <_Z12send_commandh+0x58>
     22c:	00 00       	nop
     22e:	91 9a       	sbi	0x12, 1	; 18
     230:	95 e1       	ldi	r25, 0x15	; 21
     232:	9a 95       	dec	r25
     234:	f1 f7       	brne	.-4      	; 0x232 <_Z12send_commandh+0x62>
     236:	00 00       	nop
     238:	91 98       	cbi	0x12, 1	; 18
     23a:	08 95       	ret

0000023c <_Z5resetv>:
     23c:	83 e0       	ldi	r24, 0x03	; 3
     23e:	81 bb       	out	0x11, r24	; 17
     240:	90 9a       	sbi	0x12, 0	; 18
     242:	89 e0       	ldi	r24, 0x09	; 9
     244:	90 e0       	ldi	r25, 0x00	; 0
     246:	25 e1       	ldi	r18, 0x15	; 21
     248:	2a 95       	dec	r18
     24a:	f1 f7       	brne	.-4      	; 0x248 <_Z5resetv+0xc>
     24c:	00 00       	nop
     24e:	91 9a       	sbi	0x12, 1	; 18
     250:	25 e1       	ldi	r18, 0x15	; 21
     252:	2a 95       	dec	r18
     254:	f1 f7       	brne	.-4      	; 0x252 <_Z5resetv+0x16>
     256:	00 00       	nop
     258:	91 98       	cbi	0x12, 1	; 18
     25a:	01 97       	sbiw	r24, 0x01	; 1
     25c:	a1 f7       	brne	.-24     	; 0x246 <_Z5resetv+0xa>
     25e:	0e 94 c6 00 	call	0x18c	; 0x18c <_Z22initialize_transmissonv>
     262:	08 95       	ret

00000264 <_Z23calculate_measured_datajh>:
     264:	8f 92       	push	r8
     266:	9f 92       	push	r9
     268:	af 92       	push	r10
     26a:	bf 92       	push	r11
     26c:	cf 92       	push	r12
     26e:	df 92       	push	r13
     270:	ef 92       	push	r14
     272:	ff 92       	push	r15
     274:	63 30       	cpi	r22, 0x03	; 3
     276:	79 f1       	breq	.+94     	; 0x2d6 <_Z23calculate_measured_datajh+0x72>
     278:	65 30       	cpi	r22, 0x05	; 5
     27a:	09 f0       	breq	.+2      	; 0x27e <_Z23calculate_measured_datajh+0x1a>
     27c:	42 c0       	rjmp	.+132    	; 0x302 <_Z23calculate_measured_datajh+0x9e>
     27e:	bc 01       	movw	r22, r24
     280:	80 e0       	ldi	r24, 0x00	; 0
     282:	90 e0       	ldi	r25, 0x00	; 0
     284:	0e 94 e3 0d 	call	0x1bc6	; 0x1bc6 <__floatunsisf>
     288:	6b 01       	movw	r12, r22
     28a:	7c 01       	movw	r14, r24
     28c:	24 e5       	ldi	r18, 0x54	; 84
     28e:	33 ee       	ldi	r19, 0xE3	; 227
     290:	45 e2       	ldi	r20, 0x25	; 37
     292:	5d e3       	ldi	r21, 0x3D	; 61
     294:	0e 94 71 0e 	call	0x1ce2	; 0x1ce2 <__mulsf3>
     298:	4b 01       	movw	r8, r22
     29a:	5c 01       	movw	r10, r24
     29c:	a7 01       	movw	r20, r14
     29e:	96 01       	movw	r18, r12
     2a0:	c7 01       	movw	r24, r14
     2a2:	b6 01       	movw	r22, r12
     2a4:	0e 94 71 0e 	call	0x1ce2	; 0x1ce2 <__mulsf3>
     2a8:	22 ea       	ldi	r18, 0xA2	; 162
     2aa:	37 ee       	ldi	r19, 0xE7	; 231
     2ac:	4b e3       	ldi	r20, 0x3B	; 59
     2ae:	56 e3       	ldi	r21, 0x36	; 54
     2b0:	0e 94 71 0e 	call	0x1ce2	; 0x1ce2 <__mulsf3>
     2b4:	9b 01       	movw	r18, r22
     2b6:	ac 01       	movw	r20, r24
     2b8:	c5 01       	movw	r24, r10
     2ba:	b4 01       	movw	r22, r8
     2bc:	0e 94 76 0d 	call	0x1aec	; 0x1aec <__subsf3>
     2c0:	20 e0       	ldi	r18, 0x00	; 0
     2c2:	30 e0       	ldi	r19, 0x00	; 0
     2c4:	40 e8       	ldi	r20, 0x80	; 128
     2c6:	50 e4       	ldi	r21, 0x40	; 64
     2c8:	0e 94 76 0d 	call	0x1aec	; 0x1aec <__subsf3>
     2cc:	56 2f       	mov	r21, r22
     2ce:	47 2f       	mov	r20, r23
     2d0:	38 2f       	mov	r19, r24
     2d2:	29 2f       	mov	r18, r25
     2d4:	1a c0       	rjmp	.+52     	; 0x30a <_Z23calculate_measured_datajh+0xa6>
     2d6:	bc 01       	movw	r22, r24
     2d8:	80 e0       	ldi	r24, 0x00	; 0
     2da:	90 e0       	ldi	r25, 0x00	; 0
     2dc:	0e 94 e3 0d 	call	0x1bc6	; 0x1bc6 <__floatunsisf>
     2e0:	2a e0       	ldi	r18, 0x0A	; 10
     2e2:	37 ed       	ldi	r19, 0xD7	; 215
     2e4:	43 e2       	ldi	r20, 0x23	; 35
     2e6:	5c e3       	ldi	r21, 0x3C	; 60
     2e8:	0e 94 71 0e 	call	0x1ce2	; 0x1ce2 <__mulsf3>
     2ec:	20 e0       	ldi	r18, 0x00	; 0
     2ee:	30 e0       	ldi	r19, 0x00	; 0
     2f0:	40 e2       	ldi	r20, 0x20	; 32
     2f2:	52 e4       	ldi	r21, 0x42	; 66
     2f4:	0e 94 76 0d 	call	0x1aec	; 0x1aec <__subsf3>
     2f8:	56 2f       	mov	r21, r22
     2fa:	47 2f       	mov	r20, r23
     2fc:	38 2f       	mov	r19, r24
     2fe:	29 2f       	mov	r18, r25
     300:	04 c0       	rjmp	.+8      	; 0x30a <_Z23calculate_measured_datajh+0xa6>
     302:	50 e0       	ldi	r21, 0x00	; 0
     304:	40 e0       	ldi	r20, 0x00	; 0
     306:	30 e8       	ldi	r19, 0x80	; 128
     308:	2f e3       	ldi	r18, 0x3F	; 63
     30a:	65 2f       	mov	r22, r21
     30c:	74 2f       	mov	r23, r20
     30e:	83 2f       	mov	r24, r19
     310:	92 2f       	mov	r25, r18
     312:	ff 90       	pop	r15
     314:	ef 90       	pop	r14
     316:	df 90       	pop	r13
     318:	cf 90       	pop	r12
     31a:	bf 90       	pop	r11
     31c:	af 90       	pop	r10
     31e:	9f 90       	pop	r9
     320:	8f 90       	pop	r8
     322:	08 95       	ret

00000324 <_Z13receive_bytesPh>:
     324:	fc 01       	movw	r30, r24
     326:	27 e0       	ldi	r18, 0x07	; 7
     328:	30 e0       	ldi	r19, 0x00	; 0
     32a:	81 e0       	ldi	r24, 0x01	; 1
     32c:	90 e0       	ldi	r25, 0x00	; 0
     32e:	91 9a       	sbi	0x12, 1	; 18
     330:	45 e1       	ldi	r20, 0x15	; 21
     332:	4a 95       	dec	r20
     334:	f1 f7       	brne	.-4      	; 0x332 <_Z13receive_bytesPh+0xe>
     336:	00 00       	nop
     338:	80 9b       	sbis	0x10, 0	; 16
     33a:	0b c0       	rjmp	.+22     	; 0x352 <_Z13receive_bytesPh+0x2e>
     33c:	60 81       	ld	r22, Z
     33e:	ac 01       	movw	r20, r24
     340:	02 2e       	mov	r0, r18
     342:	02 c0       	rjmp	.+4      	; 0x348 <_Z13receive_bytesPh+0x24>
     344:	44 0f       	add	r20, r20
     346:	55 1f       	adc	r21, r21
     348:	0a 94       	dec	r0
     34a:	e2 f7       	brpl	.-8      	; 0x344 <_Z13receive_bytesPh+0x20>
     34c:	46 2b       	or	r20, r22
     34e:	40 83       	st	Z, r20
     350:	0b c0       	rjmp	.+22     	; 0x368 <_Z13receive_bytesPh+0x44>
     352:	ac 01       	movw	r20, r24
     354:	02 2e       	mov	r0, r18
     356:	02 c0       	rjmp	.+4      	; 0x35c <_Z13receive_bytesPh+0x38>
     358:	44 0f       	add	r20, r20
     35a:	55 1f       	adc	r21, r21
     35c:	0a 94       	dec	r0
     35e:	e2 f7       	brpl	.-8      	; 0x358 <_Z13receive_bytesPh+0x34>
     360:	40 95       	com	r20
     362:	50 81       	ld	r21, Z
     364:	45 23       	and	r20, r21
     366:	40 83       	st	Z, r20
     368:	91 98       	cbi	0x12, 1	; 18
     36a:	45 e1       	ldi	r20, 0x15	; 21
     36c:	4a 95       	dec	r20
     36e:	f1 f7       	brne	.-4      	; 0x36c <_Z13receive_bytesPh+0x48>
     370:	00 00       	nop
     372:	21 50       	subi	r18, 0x01	; 1
     374:	31 09       	sbc	r19, r1
     376:	d8 f6       	brcc	.-74     	; 0x32e <_Z13receive_bytesPh+0xa>
     378:	08 95       	ret

0000037a <_Z3ackv>:
     37a:	83 e0       	ldi	r24, 0x03	; 3
     37c:	81 bb       	out	0x11, r24	; 17
     37e:	90 98       	cbi	0x12, 0	; 18
     380:	85 e1       	ldi	r24, 0x15	; 21
     382:	8a 95       	dec	r24
     384:	f1 f7       	brne	.-4      	; 0x382 <_Z3ackv+0x8>
     386:	00 00       	nop
     388:	91 9a       	sbi	0x12, 1	; 18
     38a:	85 e1       	ldi	r24, 0x15	; 21
     38c:	8a 95       	dec	r24
     38e:	f1 f7       	brne	.-4      	; 0x38c <_Z3ackv+0x12>
     390:	00 00       	nop
     392:	91 98       	cbi	0x12, 1	; 18
     394:	85 e1       	ldi	r24, 0x15	; 21
     396:	8a 95       	dec	r24
     398:	f1 f7       	brne	.-4      	; 0x396 <_Z3ackv+0x1c>
     39a:	00 00       	nop
     39c:	8e ef       	ldi	r24, 0xFE	; 254
     39e:	81 bb       	out	0x11, r24	; 17
     3a0:	90 9a       	sbi	0x12, 0	; 18
     3a2:	08 95       	ret

000003a4 <_Z9read_datav>:
     3a4:	cf 93       	push	r28
     3a6:	df 93       	push	r29
     3a8:	00 d0       	rcall	.+0      	; 0x3aa <_Z9read_datav+0x6>
     3aa:	cd b7       	in	r28, 0x3d	; 61
     3ac:	de b7       	in	r29, 0x3e	; 62
     3ae:	1a 82       	std	Y+2, r1	; 0x02
     3b0:	19 82       	std	Y+1, r1	; 0x01
     3b2:	8e ef       	ldi	r24, 0xFE	; 254
     3b4:	81 bb       	out	0x11, r24	; 17
     3b6:	90 9a       	sbi	0x12, 0	; 18
     3b8:	80 99       	sbic	0x10, 0	; 16
     3ba:	fe cf       	rjmp	.-4      	; 0x3b8 <_Z9read_datav+0x14>
     3bc:	ce 01       	movw	r24, r28
     3be:	01 96       	adiw	r24, 0x01	; 1
     3c0:	0e 94 92 01 	call	0x324	; 0x324 <_Z13receive_bytesPh>
     3c4:	0e 94 bd 01 	call	0x37a	; 0x37a <_Z3ackv>
     3c8:	ce 01       	movw	r24, r28
     3ca:	02 96       	adiw	r24, 0x02	; 2
     3cc:	0e 94 92 01 	call	0x324	; 0x324 <_Z13receive_bytesPh>
     3d0:	89 81       	ldd	r24, Y+1	; 0x01
     3d2:	90 e0       	ldi	r25, 0x00	; 0
     3d4:	98 2f       	mov	r25, r24
     3d6:	88 27       	eor	r24, r24
     3d8:	2a 81       	ldd	r18, Y+2	; 0x02
     3da:	82 2b       	or	r24, r18
     3dc:	0f 90       	pop	r0
     3de:	0f 90       	pop	r0
     3e0:	df 91       	pop	r29
     3e2:	cf 91       	pop	r28
     3e4:	08 95       	ret

000003e6 <_Z9sht_sensev>:
     3e6:	4f 92       	push	r4
     3e8:	5f 92       	push	r5
     3ea:	6f 92       	push	r6
     3ec:	7f 92       	push	r7
     3ee:	8f 92       	push	r8
     3f0:	9f 92       	push	r9
     3f2:	af 92       	push	r10
     3f4:	bf 92       	push	r11
     3f6:	cf 92       	push	r12
     3f8:	df 92       	push	r13
     3fa:	ef 92       	push	r14
     3fc:	ff 92       	push	r15
     3fe:	0f 93       	push	r16
     400:	1f 93       	push	r17
     402:	cf 93       	push	r28
     404:	df 93       	push	r29
     406:	cd b7       	in	r28, 0x3d	; 61
     408:	de b7       	in	r29, 0x3e	; 62
     40a:	28 97       	sbiw	r28, 0x08	; 8
     40c:	0f b6       	in	r0, 0x3f	; 63
     40e:	f8 94       	cli
     410:	de bf       	out	0x3e, r29	; 62
     412:	0f be       	out	0x3f, r0	; 63
     414:	cd bf       	out	0x3d, r28	; 61
     416:	0e 94 c6 00 	call	0x18c	; 0x18c <_Z22initialize_transmissonv>
     41a:	83 e0       	ldi	r24, 0x03	; 3
     41c:	0e 94 e8 00 	call	0x1d0	; 0x1d0 <_Z12send_commandh>
     420:	8f e3       	ldi	r24, 0x3F	; 63
     422:	91 e0       	ldi	r25, 0x01	; 1
     424:	01 97       	sbiw	r24, 0x01	; 1
     426:	f1 f7       	brne	.-4      	; 0x424 <__LOCK_REGION_LENGTH__+0x24>
     428:	00 c0       	rjmp	.+0      	; 0x42a <__LOCK_REGION_LENGTH__+0x2a>
     42a:	00 00       	nop
     42c:	0e 94 d2 01 	call	0x3a4	; 0x3a4 <_Z9read_datav>
     430:	63 e0       	ldi	r22, 0x03	; 3
     432:	0e 94 32 01 	call	0x264	; 0x264 <_Z23calculate_measured_datajh>
     436:	16 2f       	mov	r17, r22
     438:	87 2e       	mov	r8, r23
     43a:	98 2e       	mov	r9, r24
     43c:	09 2f       	mov	r16, r25
     43e:	0e 94 1e 01 	call	0x23c	; 0x23c <_Z5resetv>
     442:	85 e0       	ldi	r24, 0x05	; 5
     444:	0e 94 e8 00 	call	0x1d0	; 0x1d0 <_Z12send_commandh>
     448:	8f e3       	ldi	r24, 0x3F	; 63
     44a:	91 e0       	ldi	r25, 0x01	; 1
     44c:	01 97       	sbiw	r24, 0x01	; 1
     44e:	f1 f7       	brne	.-4      	; 0x44c <__LOCK_REGION_LENGTH__+0x4c>
     450:	00 c0       	rjmp	.+0      	; 0x452 <__LOCK_REGION_LENGTH__+0x52>
     452:	00 00       	nop
     454:	0e 94 d2 01 	call	0x3a4	; 0x3a4 <_Z9read_datav>
     458:	5c 01       	movw	r10, r24
     45a:	65 e0       	ldi	r22, 0x05	; 5
     45c:	0e 94 32 01 	call	0x264	; 0x264 <_Z23calculate_measured_datajh>
     460:	2b 01       	movw	r4, r22
     462:	3c 01       	movw	r6, r24
     464:	20 e0       	ldi	r18, 0x00	; 0
     466:	30 e0       	ldi	r19, 0x00	; 0
     468:	48 ec       	ldi	r20, 0xC8	; 200
     46a:	51 e4       	ldi	r21, 0x41	; 65
     46c:	61 2f       	mov	r22, r17
     46e:	78 2d       	mov	r23, r8
     470:	89 2d       	mov	r24, r9
     472:	90 2f       	mov	r25, r16
     474:	0e 94 76 0d 	call	0x1aec	; 0x1aec <__subsf3>
     478:	6b 01       	movw	r12, r22
     47a:	7c 01       	movw	r14, r24
     47c:	b5 01       	movw	r22, r10
     47e:	80 e0       	ldi	r24, 0x00	; 0
     480:	90 e0       	ldi	r25, 0x00	; 0
     482:	0e 94 e3 0d 	call	0x1bc6	; 0x1bc6 <__floatunsisf>
     486:	2c ea       	ldi	r18, 0xAC	; 172
     488:	35 ec       	ldi	r19, 0xC5	; 197
     48a:	47 ea       	ldi	r20, 0xA7	; 167
     48c:	58 e3       	ldi	r21, 0x38	; 56
     48e:	0e 94 71 0e 	call	0x1ce2	; 0x1ce2 <__mulsf3>
     492:	2a e0       	ldi	r18, 0x0A	; 10
     494:	37 ed       	ldi	r19, 0xD7	; 215
     496:	43 e2       	ldi	r20, 0x23	; 35
     498:	5c e3       	ldi	r21, 0x3C	; 60
     49a:	0e 94 77 0d 	call	0x1aee	; 0x1aee <__addsf3>
     49e:	9b 01       	movw	r18, r22
     4a0:	ac 01       	movw	r20, r24
     4a2:	c7 01       	movw	r24, r14
     4a4:	b6 01       	movw	r22, r12
     4a6:	0e 94 71 0e 	call	0x1ce2	; 0x1ce2 <__mulsf3>
     4aa:	a3 01       	movw	r20, r6
     4ac:	92 01       	movw	r18, r4
     4ae:	0e 94 77 0d 	call	0x1aee	; 0x1aee <__addsf3>
     4b2:	f6 2e       	mov	r15, r22
     4b4:	c7 2e       	mov	r12, r23
     4b6:	d8 2e       	mov	r13, r24
     4b8:	e9 2e       	mov	r14, r25
     4ba:	0e 94 1e 01 	call	0x23c	; 0x23c <_Z5resetv>
     4be:	9f ef       	ldi	r25, 0xFF	; 255
     4c0:	21 ee       	ldi	r18, 0xE1	; 225
     4c2:	84 e0       	ldi	r24, 0x04	; 4
     4c4:	91 50       	subi	r25, 0x01	; 1
     4c6:	20 40       	sbci	r18, 0x00	; 0
     4c8:	80 40       	sbci	r24, 0x00	; 0
     4ca:	e1 f7       	brne	.-8      	; 0x4c4 <__LOCK_REGION_LENGTH__+0xc4>
     4cc:	00 c0       	rjmp	.+0      	; 0x4ce <__LOCK_REGION_LENGTH__+0xce>
     4ce:	00 00       	nop
     4d0:	41 2f       	mov	r20, r17
     4d2:	58 2d       	mov	r21, r8
     4d4:	69 2d       	mov	r22, r9
     4d6:	70 2f       	mov	r23, r16
     4d8:	49 83       	std	Y+1, r20	; 0x01
     4da:	5a 83       	std	Y+2, r21	; 0x02
     4dc:	6b 83       	std	Y+3, r22	; 0x03
     4de:	7c 83       	std	Y+4, r23	; 0x04
     4e0:	4f 2d       	mov	r20, r15
     4e2:	5c 2d       	mov	r21, r12
     4e4:	6d 2d       	mov	r22, r13
     4e6:	7e 2d       	mov	r23, r14
     4e8:	4d 83       	std	Y+5, r20	; 0x05
     4ea:	5e 83       	std	Y+6, r21	; 0x06
     4ec:	6f 83       	std	Y+7, r22	; 0x07
     4ee:	78 87       	std	Y+8, r23	; 0x08
     4f0:	21 2f       	mov	r18, r17
     4f2:	3a 81       	ldd	r19, Y+2	; 0x02
     4f4:	4b 81       	ldd	r20, Y+3	; 0x03
     4f6:	5c 81       	ldd	r21, Y+4	; 0x04
     4f8:	6f 2d       	mov	r22, r15
     4fa:	7e 81       	ldd	r23, Y+6	; 0x06
     4fc:	8f 81       	ldd	r24, Y+7	; 0x07
     4fe:	98 85       	ldd	r25, Y+8	; 0x08
     500:	28 96       	adiw	r28, 0x08	; 8
     502:	0f b6       	in	r0, 0x3f	; 63
     504:	f8 94       	cli
     506:	de bf       	out	0x3e, r29	; 62
     508:	0f be       	out	0x3f, r0	; 63
     50a:	cd bf       	out	0x3d, r28	; 61
     50c:	df 91       	pop	r29
     50e:	cf 91       	pop	r28
     510:	1f 91       	pop	r17
     512:	0f 91       	pop	r16
     514:	ff 90       	pop	r15
     516:	ef 90       	pop	r14
     518:	df 90       	pop	r13
     51a:	cf 90       	pop	r12
     51c:	bf 90       	pop	r11
     51e:	af 90       	pop	r10
     520:	9f 90       	pop	r9
     522:	8f 90       	pop	r8
     524:	7f 90       	pop	r7
     526:	6f 90       	pop	r6
     528:	5f 90       	pop	r5
     52a:	4f 90       	pop	r4
     52c:	08 95       	ret

0000052e <__vector_7>:
     52e:	1f 92       	push	r1
     530:	0f 92       	push	r0
     532:	0f b6       	in	r0, 0x3f	; 63
     534:	0f 92       	push	r0
     536:	11 24       	eor	r1, r1
     538:	2f 93       	push	r18
     53a:	3f 93       	push	r19
     53c:	4f 93       	push	r20
     53e:	5f 93       	push	r21
     540:	6f 93       	push	r22
     542:	7f 93       	push	r23
     544:	8f 93       	push	r24
     546:	9f 93       	push	r25
     548:	af 93       	push	r26
     54a:	bf 93       	push	r27
     54c:	ef 93       	push	r30
     54e:	ff 93       	push	r31
     550:	80 91 46 03 	lds	r24, 0x0346	; 0x800346 <__data_end>
     554:	90 91 47 03 	lds	r25, 0x0347	; 0x800347 <__data_end+0x1>
     558:	01 96       	adiw	r24, 0x01	; 1
     55a:	84 31       	cpi	r24, 0x14	; 20
     55c:	91 05       	cpc	r25, r1
     55e:	29 f0       	breq	.+10     	; 0x56a <__vector_7+0x3c>
     560:	90 93 47 03 	sts	0x0347, r25	; 0x800347 <__data_end+0x1>
     564:	80 93 46 03 	sts	0x0346, r24	; 0x800346 <__data_end>
     568:	3c c1       	rjmp	.+632    	; 0x7e2 <__vector_7+0x2b4>
     56a:	10 92 47 03 	sts	0x0347, r1	; 0x800347 <__data_end+0x1>
     56e:	10 92 46 03 	sts	0x0346, r1	; 0x800346 <__data_end>
     572:	84 9b       	sbis	0x10, 4	; 16
     574:	1d c0       	rjmp	.+58     	; 0x5b0 <__vector_7+0x82>
     576:	ab 9a       	sbi	0x15, 3	; 21
     578:	aa 9a       	sbi	0x15, 2	; 21
     57a:	80 91 52 03 	lds	r24, 0x0352	; 0x800352 <i>
     57e:	90 91 53 03 	lds	r25, 0x0353	; 0x800353 <i+0x1>
     582:	01 96       	adiw	r24, 0x01	; 1
     584:	90 93 53 03 	sts	0x0353, r25	; 0x800353 <i+0x1>
     588:	80 93 52 03 	sts	0x0352, r24	; 0x800352 <i>
     58c:	82 30       	cpi	r24, 0x02	; 2
     58e:	91 05       	cpc	r25, r1
     590:	39 f4       	brne	.+14     	; 0x5a0 <__vector_7+0x72>
     592:	84 e0       	ldi	r24, 0x04	; 4
     594:	90 e0       	ldi	r25, 0x00	; 0
     596:	90 93 53 03 	sts	0x0353, r25	; 0x800353 <i+0x1>
     59a:	80 93 52 03 	sts	0x0352, r24	; 0x800352 <i>
     59e:	1e c1       	rjmp	.+572    	; 0x7dc <__vector_7+0x2ae>
     5a0:	08 97       	sbiw	r24, 0x08	; 8
     5a2:	09 f0       	breq	.+2      	; 0x5a6 <__vector_7+0x78>
     5a4:	1b c1       	rjmp	.+566    	; 0x7dc <__vector_7+0x2ae>
     5a6:	10 92 53 03 	sts	0x0353, r1	; 0x800353 <i+0x1>
     5aa:	10 92 52 03 	sts	0x0352, r1	; 0x800352 <i>
     5ae:	16 c1       	rjmp	.+556    	; 0x7dc <__vector_7+0x2ae>
     5b0:	85 9b       	sbis	0x10, 5	; 16
     5b2:	88 c0       	rjmp	.+272    	; 0x6c4 <__vector_7+0x196>
     5b4:	ab 9a       	sbi	0x15, 3	; 21
     5b6:	aa 9a       	sbi	0x15, 2	; 21
     5b8:	80 91 52 03 	lds	r24, 0x0352	; 0x800352 <i>
     5bc:	90 91 53 03 	lds	r25, 0x0353	; 0x800353 <i+0x1>
     5c0:	84 30       	cpi	r24, 0x04	; 4
     5c2:	91 05       	cpc	r25, r1
     5c4:	e9 f1       	breq	.+122    	; 0x640 <__vector_7+0x112>
     5c6:	2c f4       	brge	.+10     	; 0x5d2 <__vector_7+0xa4>
     5c8:	00 97       	sbiw	r24, 0x00	; 0
     5ca:	61 f0       	breq	.+24     	; 0x5e4 <__vector_7+0xb6>
     5cc:	01 97       	sbiw	r24, 0x01	; 1
     5ce:	09 f1       	breq	.+66     	; 0x612 <__vector_7+0xe4>
     5d0:	05 c1       	rjmp	.+522    	; 0x7dc <__vector_7+0x2ae>
     5d2:	86 30       	cpi	r24, 0x06	; 6
     5d4:	91 05       	cpc	r25, r1
     5d6:	09 f4       	brne	.+2      	; 0x5da <__vector_7+0xac>
     5d8:	54 c0       	rjmp	.+168    	; 0x682 <__vector_7+0x154>
     5da:	e4 f1       	brlt	.+120    	; 0x654 <__vector_7+0x126>
     5dc:	07 97       	sbiw	r24, 0x07	; 7
     5de:	09 f4       	brne	.+2      	; 0x5e2 <__vector_7+0xb4>
     5e0:	67 c0       	rjmp	.+206    	; 0x6b0 <__vector_7+0x182>
     5e2:	fc c0       	rjmp	.+504    	; 0x7dc <__vector_7+0x2ae>
     5e4:	20 e0       	ldi	r18, 0x00	; 0
     5e6:	30 e0       	ldi	r19, 0x00	; 0
     5e8:	40 e8       	ldi	r20, 0x80	; 128
     5ea:	5f e3       	ldi	r21, 0x3F	; 63
     5ec:	60 91 4c 03 	lds	r22, 0x034C	; 0x80034c <temp_>
     5f0:	70 91 4d 03 	lds	r23, 0x034D	; 0x80034d <temp_+0x1>
     5f4:	80 91 4e 03 	lds	r24, 0x034E	; 0x80034e <temp_+0x2>
     5f8:	90 91 4f 03 	lds	r25, 0x034F	; 0x80034f <temp_+0x3>
     5fc:	0e 94 77 0d 	call	0x1aee	; 0x1aee <__addsf3>
     600:	60 93 4c 03 	sts	0x034C, r22	; 0x80034c <temp_>
     604:	70 93 4d 03 	sts	0x034D, r23	; 0x80034d <temp_+0x1>
     608:	80 93 4e 03 	sts	0x034E, r24	; 0x80034e <temp_+0x2>
     60c:	90 93 4f 03 	sts	0x034F, r25	; 0x80034f <temp_+0x3>
     610:	e5 c0       	rjmp	.+458    	; 0x7dc <__vector_7+0x2ae>
     612:	20 e0       	ldi	r18, 0x00	; 0
     614:	30 e0       	ldi	r19, 0x00	; 0
     616:	40 e8       	ldi	r20, 0x80	; 128
     618:	5f e3       	ldi	r21, 0x3F	; 63
     61a:	60 91 48 03 	lds	r22, 0x0348	; 0x800348 <hum_>
     61e:	70 91 49 03 	lds	r23, 0x0349	; 0x800349 <hum_+0x1>
     622:	80 91 4a 03 	lds	r24, 0x034A	; 0x80034a <hum_+0x2>
     626:	90 91 4b 03 	lds	r25, 0x034B	; 0x80034b <hum_+0x3>
     62a:	0e 94 77 0d 	call	0x1aee	; 0x1aee <__addsf3>
     62e:	60 93 48 03 	sts	0x0348, r22	; 0x800348 <hum_>
     632:	70 93 49 03 	sts	0x0349, r23	; 0x800349 <hum_+0x1>
     636:	80 93 4a 03 	sts	0x034A, r24	; 0x80034a <hum_+0x2>
     63a:	90 93 4b 03 	sts	0x034B, r25	; 0x80034b <hum_+0x3>
     63e:	ce c0       	rjmp	.+412    	; 0x7dc <__vector_7+0x2ae>
     640:	80 91 50 03 	lds	r24, 0x0350	; 0x800350 <n>
     644:	90 91 51 03 	lds	r25, 0x0351	; 0x800351 <n+0x1>
     648:	01 96       	adiw	r24, 0x01	; 1
     64a:	90 93 51 03 	sts	0x0351, r25	; 0x800351 <n+0x1>
     64e:	80 93 50 03 	sts	0x0350, r24	; 0x800350 <n>
     652:	c4 c0       	rjmp	.+392    	; 0x7dc <__vector_7+0x2ae>
     654:	2d ec       	ldi	r18, 0xCD	; 205
     656:	3c ec       	ldi	r19, 0xCC	; 204
     658:	4c ec       	ldi	r20, 0xCC	; 204
     65a:	5d e3       	ldi	r21, 0x3D	; 61
     65c:	60 91 66 00 	lds	r22, 0x0066	; 0x800066 <temp>
     660:	70 91 67 00 	lds	r23, 0x0067	; 0x800067 <temp+0x1>
     664:	80 91 68 00 	lds	r24, 0x0068	; 0x800068 <temp+0x2>
     668:	90 91 69 00 	lds	r25, 0x0069	; 0x800069 <temp+0x3>
     66c:	0e 94 77 0d 	call	0x1aee	; 0x1aee <__addsf3>
     670:	60 93 66 00 	sts	0x0066, r22	; 0x800066 <temp>
     674:	70 93 67 00 	sts	0x0067, r23	; 0x800067 <temp+0x1>
     678:	80 93 68 00 	sts	0x0068, r24	; 0x800068 <temp+0x2>
     67c:	90 93 69 00 	sts	0x0069, r25	; 0x800069 <temp+0x3>
     680:	ad c0       	rjmp	.+346    	; 0x7dc <__vector_7+0x2ae>
     682:	2d ec       	ldi	r18, 0xCD	; 205
     684:	3c ec       	ldi	r19, 0xCC	; 204
     686:	4c ec       	ldi	r20, 0xCC	; 204
     688:	5d e3       	ldi	r21, 0x3D	; 61
     68a:	60 91 62 00 	lds	r22, 0x0062	; 0x800062 <hum>
     68e:	70 91 63 00 	lds	r23, 0x0063	; 0x800063 <hum+0x1>
     692:	80 91 64 00 	lds	r24, 0x0064	; 0x800064 <hum+0x2>
     696:	90 91 65 00 	lds	r25, 0x0065	; 0x800065 <hum+0x3>
     69a:	0e 94 77 0d 	call	0x1aee	; 0x1aee <__addsf3>
     69e:	60 93 62 00 	sts	0x0062, r22	; 0x800062 <hum>
     6a2:	70 93 63 00 	sts	0x0063, r23	; 0x800063 <hum+0x1>
     6a6:	80 93 64 00 	sts	0x0064, r24	; 0x800064 <hum+0x2>
     6aa:	90 93 65 00 	sts	0x0065, r25	; 0x800065 <hum+0x3>
     6ae:	96 c0       	rjmp	.+300    	; 0x7dc <__vector_7+0x2ae>
     6b0:	80 91 6a 00 	lds	r24, 0x006A	; 0x80006a <motor_>
     6b4:	90 91 6b 00 	lds	r25, 0x006B	; 0x80006b <motor_+0x1>
     6b8:	01 96       	adiw	r24, 0x01	; 1
     6ba:	90 93 6b 00 	sts	0x006B, r25	; 0x80006b <motor_+0x1>
     6be:	80 93 6a 00 	sts	0x006A, r24	; 0x80006a <motor_>
     6c2:	8c c0       	rjmp	.+280    	; 0x7dc <__vector_7+0x2ae>
     6c4:	86 9b       	sbis	0x10, 6	; 16
     6c6:	88 c0       	rjmp	.+272    	; 0x7d8 <__vector_7+0x2aa>
     6c8:	ab 9a       	sbi	0x15, 3	; 21
     6ca:	aa 9a       	sbi	0x15, 2	; 21
     6cc:	80 91 52 03 	lds	r24, 0x0352	; 0x800352 <i>
     6d0:	90 91 53 03 	lds	r25, 0x0353	; 0x800353 <i+0x1>
     6d4:	84 30       	cpi	r24, 0x04	; 4
     6d6:	91 05       	cpc	r25, r1
     6d8:	e9 f1       	breq	.+122    	; 0x754 <__vector_7+0x226>
     6da:	2c f4       	brge	.+10     	; 0x6e6 <__vector_7+0x1b8>
     6dc:	00 97       	sbiw	r24, 0x00	; 0
     6de:	61 f0       	breq	.+24     	; 0x6f8 <__vector_7+0x1ca>
     6e0:	01 97       	sbiw	r24, 0x01	; 1
     6e2:	09 f1       	breq	.+66     	; 0x726 <__vector_7+0x1f8>
     6e4:	7b c0       	rjmp	.+246    	; 0x7dc <__vector_7+0x2ae>
     6e6:	86 30       	cpi	r24, 0x06	; 6
     6e8:	91 05       	cpc	r25, r1
     6ea:	09 f4       	brne	.+2      	; 0x6ee <__vector_7+0x1c0>
     6ec:	54 c0       	rjmp	.+168    	; 0x796 <__vector_7+0x268>
     6ee:	e4 f1       	brlt	.+120    	; 0x768 <__vector_7+0x23a>
     6f0:	07 97       	sbiw	r24, 0x07	; 7
     6f2:	09 f4       	brne	.+2      	; 0x6f6 <__vector_7+0x1c8>
     6f4:	67 c0       	rjmp	.+206    	; 0x7c4 <__vector_7+0x296>
     6f6:	72 c0       	rjmp	.+228    	; 0x7dc <__vector_7+0x2ae>
     6f8:	20 e0       	ldi	r18, 0x00	; 0
     6fa:	30 e0       	ldi	r19, 0x00	; 0
     6fc:	40 e8       	ldi	r20, 0x80	; 128
     6fe:	5f e3       	ldi	r21, 0x3F	; 63
     700:	60 91 4c 03 	lds	r22, 0x034C	; 0x80034c <temp_>
     704:	70 91 4d 03 	lds	r23, 0x034D	; 0x80034d <temp_+0x1>
     708:	80 91 4e 03 	lds	r24, 0x034E	; 0x80034e <temp_+0x2>
     70c:	90 91 4f 03 	lds	r25, 0x034F	; 0x80034f <temp_+0x3>
     710:	0e 94 76 0d 	call	0x1aec	; 0x1aec <__subsf3>
     714:	60 93 4c 03 	sts	0x034C, r22	; 0x80034c <temp_>
     718:	70 93 4d 03 	sts	0x034D, r23	; 0x80034d <temp_+0x1>
     71c:	80 93 4e 03 	sts	0x034E, r24	; 0x80034e <temp_+0x2>
     720:	90 93 4f 03 	sts	0x034F, r25	; 0x80034f <temp_+0x3>
     724:	5b c0       	rjmp	.+182    	; 0x7dc <__vector_7+0x2ae>
     726:	20 e0       	ldi	r18, 0x00	; 0
     728:	30 e0       	ldi	r19, 0x00	; 0
     72a:	40 e8       	ldi	r20, 0x80	; 128
     72c:	5f e3       	ldi	r21, 0x3F	; 63
     72e:	60 91 48 03 	lds	r22, 0x0348	; 0x800348 <hum_>
     732:	70 91 49 03 	lds	r23, 0x0349	; 0x800349 <hum_+0x1>
     736:	80 91 4a 03 	lds	r24, 0x034A	; 0x80034a <hum_+0x2>
     73a:	90 91 4b 03 	lds	r25, 0x034B	; 0x80034b <hum_+0x3>
     73e:	0e 94 76 0d 	call	0x1aec	; 0x1aec <__subsf3>
     742:	60 93 48 03 	sts	0x0348, r22	; 0x800348 <hum_>
     746:	70 93 49 03 	sts	0x0349, r23	; 0x800349 <hum_+0x1>
     74a:	80 93 4a 03 	sts	0x034A, r24	; 0x80034a <hum_+0x2>
     74e:	90 93 4b 03 	sts	0x034B, r25	; 0x80034b <hum_+0x3>
     752:	44 c0       	rjmp	.+136    	; 0x7dc <__vector_7+0x2ae>
     754:	80 91 50 03 	lds	r24, 0x0350	; 0x800350 <n>
     758:	90 91 51 03 	lds	r25, 0x0351	; 0x800351 <n+0x1>
     75c:	01 97       	sbiw	r24, 0x01	; 1
     75e:	90 93 51 03 	sts	0x0351, r25	; 0x800351 <n+0x1>
     762:	80 93 50 03 	sts	0x0350, r24	; 0x800350 <n>
     766:	3a c0       	rjmp	.+116    	; 0x7dc <__vector_7+0x2ae>
     768:	2d ec       	ldi	r18, 0xCD	; 205
     76a:	3c ec       	ldi	r19, 0xCC	; 204
     76c:	4c ec       	ldi	r20, 0xCC	; 204
     76e:	5d e3       	ldi	r21, 0x3D	; 61
     770:	60 91 66 00 	lds	r22, 0x0066	; 0x800066 <temp>
     774:	70 91 67 00 	lds	r23, 0x0067	; 0x800067 <temp+0x1>
     778:	80 91 68 00 	lds	r24, 0x0068	; 0x800068 <temp+0x2>
     77c:	90 91 69 00 	lds	r25, 0x0069	; 0x800069 <temp+0x3>
     780:	0e 94 76 0d 	call	0x1aec	; 0x1aec <__subsf3>
     784:	60 93 66 00 	sts	0x0066, r22	; 0x800066 <temp>
     788:	70 93 67 00 	sts	0x0067, r23	; 0x800067 <temp+0x1>
     78c:	80 93 68 00 	sts	0x0068, r24	; 0x800068 <temp+0x2>
     790:	90 93 69 00 	sts	0x0069, r25	; 0x800069 <temp+0x3>
     794:	23 c0       	rjmp	.+70     	; 0x7dc <__vector_7+0x2ae>
     796:	2d ec       	ldi	r18, 0xCD	; 205
     798:	3c ec       	ldi	r19, 0xCC	; 204
     79a:	4c ec       	ldi	r20, 0xCC	; 204
     79c:	5d e3       	ldi	r21, 0x3D	; 61
     79e:	60 91 62 00 	lds	r22, 0x0062	; 0x800062 <hum>
     7a2:	70 91 63 00 	lds	r23, 0x0063	; 0x800063 <hum+0x1>
     7a6:	80 91 64 00 	lds	r24, 0x0064	; 0x800064 <hum+0x2>
     7aa:	90 91 65 00 	lds	r25, 0x0065	; 0x800065 <hum+0x3>
     7ae:	0e 94 76 0d 	call	0x1aec	; 0x1aec <__subsf3>
     7b2:	60 93 62 00 	sts	0x0062, r22	; 0x800062 <hum>
     7b6:	70 93 63 00 	sts	0x0063, r23	; 0x800063 <hum+0x1>
     7ba:	80 93 64 00 	sts	0x0064, r24	; 0x800064 <hum+0x2>
     7be:	90 93 65 00 	sts	0x0065, r25	; 0x800065 <hum+0x3>
     7c2:	0c c0       	rjmp	.+24     	; 0x7dc <__vector_7+0x2ae>
     7c4:	80 91 6a 00 	lds	r24, 0x006A	; 0x80006a <motor_>
     7c8:	90 91 6b 00 	lds	r25, 0x006B	; 0x80006b <motor_+0x1>
     7cc:	01 97       	sbiw	r24, 0x01	; 1
     7ce:	90 93 6b 00 	sts	0x006B, r25	; 0x80006b <motor_+0x1>
     7d2:	80 93 6a 00 	sts	0x006A, r24	; 0x80006a <motor_>
     7d6:	02 c0       	rjmp	.+4      	; 0x7dc <__vector_7+0x2ae>
     7d8:	ab 98       	cbi	0x15, 3	; 21
     7da:	aa 98       	cbi	0x15, 2	; 21
     7dc:	82 b3       	in	r24, 0x12	; 18
     7de:	80 58       	subi	r24, 0x80	; 128
     7e0:	82 bb       	out	0x12, r24	; 18
     7e2:	ff 91       	pop	r31
     7e4:	ef 91       	pop	r30
     7e6:	bf 91       	pop	r27
     7e8:	af 91       	pop	r26
     7ea:	9f 91       	pop	r25
     7ec:	8f 91       	pop	r24
     7ee:	7f 91       	pop	r23
     7f0:	6f 91       	pop	r22
     7f2:	5f 91       	pop	r21
     7f4:	4f 91       	pop	r20
     7f6:	3f 91       	pop	r19
     7f8:	2f 91       	pop	r18
     7fa:	0f 90       	pop	r0
     7fc:	0f be       	out	0x3f, r0	; 63
     7fe:	0f 90       	pop	r0
     800:	1f 90       	pop	r1
     802:	18 95       	reti

00000804 <_Z8glcd_cmdh>:
     804:	88 bb       	out	0x18, r24	; 24
     806:	d8 98       	cbi	0x1b, 0	; 27
     808:	d9 98       	cbi	0x1b, 1	; 27
     80a:	da 9a       	sbi	0x1b, 2	; 27
     80c:	8f e9       	ldi	r24, 0x9F	; 159
     80e:	9f e0       	ldi	r25, 0x0F	; 15
     810:	01 97       	sbiw	r24, 0x01	; 1
     812:	f1 f7       	brne	.-4      	; 0x810 <_Z8glcd_cmdh+0xc>
     814:	00 c0       	rjmp	.+0      	; 0x816 <_Z8glcd_cmdh+0x12>
     816:	00 00       	nop
     818:	da 98       	cbi	0x1b, 2	; 27
     81a:	08 95       	ret

0000081c <_Z8glcd_dtah>:
     81c:	88 bb       	out	0x18, r24	; 24
     81e:	d8 9a       	sbi	0x1b, 0	; 27
     820:	d9 98       	cbi	0x1b, 1	; 27
     822:	da 9a       	sbi	0x1b, 2	; 27
     824:	85 e3       	ldi	r24, 0x35	; 53
     826:	8a 95       	dec	r24
     828:	f1 f7       	brne	.-4      	; 0x826 <_Z8glcd_dtah+0xa>
     82a:	00 00       	nop
     82c:	da 98       	cbi	0x1b, 2	; 27
     82e:	08 95       	ret

00000830 <_Z15glcd_PageSelectc>:
     830:	81 30       	cpi	r24, 0x01	; 1
     832:	49 f0       	breq	.+18     	; 0x846 <_Z15glcd_PageSelectc+0x16>
     834:	28 f0       	brcs	.+10     	; 0x840 <_Z15glcd_PageSelectc+0x10>
     836:	82 30       	cpi	r24, 0x02	; 2
     838:	49 f0       	breq	.+18     	; 0x84c <_Z15glcd_PageSelectc+0x1c>
     83a:	83 30       	cpi	r24, 0x03	; 3
     83c:	51 f0       	breq	.+20     	; 0x852 <_Z15glcd_PageSelectc+0x22>
     83e:	0c c0       	rjmp	.+24     	; 0x858 <_Z15glcd_PageSelectc+0x28>
     840:	de 98       	cbi	0x1b, 6	; 27
     842:	dc 9a       	sbi	0x1b, 4	; 27
     844:	08 95       	ret
     846:	dc 98       	cbi	0x1b, 4	; 27
     848:	de 9a       	sbi	0x1b, 6	; 27
     84a:	08 95       	ret
     84c:	de 9a       	sbi	0x1b, 6	; 27
     84e:	dc 9a       	sbi	0x1b, 4	; 27
     850:	08 95       	ret
     852:	de 98       	cbi	0x1b, 6	; 27
     854:	dc 98       	cbi	0x1b, 4	; 27
     856:	08 95       	ret
     858:	de 98       	cbi	0x1b, 6	; 27
     85a:	dc 9a       	sbi	0x1b, 4	; 27
     85c:	08 95       	ret

0000085e <_Z14glcd_SetCursorhh>:
     85e:	cf 93       	push	r28
     860:	c6 2f       	mov	r28, r22
     862:	88 54       	subi	r24, 0x48	; 72
     864:	0e 94 02 04 	call	0x804	; 0x804 <_Z8glcd_cmdh>
     868:	80 e4       	ldi	r24, 0x40	; 64
     86a:	8c 0f       	add	r24, r28
     86c:	0e 94 02 04 	call	0x804	; 0x804 <_Z8glcd_cmdh>
     870:	cf 91       	pop	r28
     872:	08 95       	ret

00000874 <_Z14glcd_writeCharPc>:
     874:	0f 93       	push	r16
     876:	1f 93       	push	r17
     878:	cf 93       	push	r28
     87a:	df 93       	push	r29
     87c:	ec 01       	movw	r28, r24
     87e:	8c 01       	movw	r16, r24
     880:	08 5f       	subi	r16, 0xF8	; 248
     882:	1f 4f       	sbci	r17, 0xFF	; 255
     884:	89 91       	ld	r24, Y+
     886:	0e 94 0e 04 	call	0x81c	; 0x81c <_Z8glcd_dtah>
     88a:	c0 17       	cp	r28, r16
     88c:	d1 07       	cpc	r29, r17
     88e:	d1 f7       	brne	.-12     	; 0x884 <_Z14glcd_writeCharPc+0x10>
     890:	df 91       	pop	r29
     892:	cf 91       	pop	r28
     894:	1f 91       	pop	r17
     896:	0f 91       	pop	r16
     898:	08 95       	ret

0000089a <_Z13glcd_writeStrcccPc>:
     89a:	ef 92       	push	r14
     89c:	ff 92       	push	r15
     89e:	0f 93       	push	r16
     8a0:	1f 93       	push	r17
     8a2:	cf 93       	push	r28
     8a4:	df 93       	push	r29
     8a6:	d8 2f       	mov	r29, r24
     8a8:	c6 2f       	mov	r28, r22
     8aa:	84 2f       	mov	r24, r20
     8ac:	89 01       	movw	r16, r18
     8ae:	0e 94 18 04 	call	0x830	; 0x830 <_Z15glcd_PageSelectc>
     8b2:	6d 2f       	mov	r22, r29
     8b4:	8c 2f       	mov	r24, r28
     8b6:	0e 94 2f 04 	call	0x85e	; 0x85e <_Z14glcd_SetCursorhh>
     8ba:	f8 01       	movw	r30, r16
     8bc:	c0 81       	ld	r28, Z
     8be:	cc 23       	and	r28, r28
     8c0:	61 f1       	breq	.+88     	; 0x91a <_Z13glcd_writeStrcccPc+0x80>
     8c2:	0f 5f       	subi	r16, 0xFF	; 255
     8c4:	1f 4f       	sbci	r17, 0xFF	; 255
     8c6:	d0 e0       	ldi	r29, 0x00	; 0
     8c8:	a0 97       	sbiw	r28, 0x20	; 32
     8ca:	ce 01       	movw	r24, r28
     8cc:	88 0f       	add	r24, r24
     8ce:	99 1f       	adc	r25, r25
     8d0:	88 0f       	add	r24, r24
     8d2:	99 1f       	adc	r25, r25
     8d4:	c8 0f       	add	r28, r24
     8d6:	d9 1f       	adc	r29, r25
     8d8:	ce 01       	movw	r24, r28
     8da:	05 96       	adiw	r24, 0x05	; 5
     8dc:	c8 17       	cp	r28, r24
     8de:	d9 07       	cpc	r29, r25
     8e0:	a4 f4       	brge	.+40     	; 0x90a <_Z13glcd_writeStrcccPc+0x70>
     8e2:	ce 01       	movw	r24, r28
     8e4:	84 59       	subi	r24, 0x94	; 148
     8e6:	9f 4f       	sbci	r25, 0xFF	; 255
     8e8:	7c 01       	movw	r14, r24
     8ea:	cf 58       	subi	r28, 0x8F	; 143
     8ec:	df 4f       	sbci	r29, 0xFF	; 255
     8ee:	f7 01       	movw	r30, r14
     8f0:	81 91       	ld	r24, Z+
     8f2:	7f 01       	movw	r14, r30
     8f4:	0e 94 0e 04 	call	0x81c	; 0x81c <_Z8glcd_dtah>
     8f8:	8f ed       	ldi	r24, 0xDF	; 223
     8fa:	9e e2       	ldi	r25, 0x2E	; 46
     8fc:	01 97       	sbiw	r24, 0x01	; 1
     8fe:	f1 f7       	brne	.-4      	; 0x8fc <_Z13glcd_writeStrcccPc+0x62>
     900:	00 c0       	rjmp	.+0      	; 0x902 <_Z13glcd_writeStrcccPc+0x68>
     902:	00 00       	nop
     904:	ec 16       	cp	r14, r28
     906:	fd 06       	cpc	r15, r29
     908:	91 f7       	brne	.-28     	; 0x8ee <_Z13glcd_writeStrcccPc+0x54>
     90a:	80 e0       	ldi	r24, 0x00	; 0
     90c:	0e 94 0e 04 	call	0x81c	; 0x81c <_Z8glcd_dtah>
     910:	f8 01       	movw	r30, r16
     912:	c1 91       	ld	r28, Z+
     914:	8f 01       	movw	r16, r30
     916:	c1 11       	cpse	r28, r1
     918:	d6 cf       	rjmp	.-84     	; 0x8c6 <_Z13glcd_writeStrcccPc+0x2c>
     91a:	df 91       	pop	r29
     91c:	cf 91       	pop	r28
     91e:	1f 91       	pop	r17
     920:	0f 91       	pop	r16
     922:	ff 90       	pop	r15
     924:	ef 90       	pop	r14
     926:	08 95       	ret

00000928 <_Z8glcd_intv>:
     928:	8f ef       	ldi	r24, 0xFF	; 255
     92a:	87 bb       	out	0x17, r24	; 23
     92c:	8a bb       	out	0x1a, r24	; 26
     92e:	db 98       	cbi	0x1b, 3	; 27
     930:	8f e3       	ldi	r24, 0x3F	; 63
     932:	9c e9       	ldi	r25, 0x9C	; 156
     934:	01 97       	sbiw	r24, 0x01	; 1
     936:	f1 f7       	brne	.-4      	; 0x934 <_Z8glcd_intv+0xc>
     938:	00 c0       	rjmp	.+0      	; 0x93a <_Z8glcd_intv+0x12>
     93a:	00 00       	nop
     93c:	db 9a       	sbi	0x1b, 3	; 27
     93e:	8f e9       	ldi	r24, 0x9F	; 159
     940:	9f e0       	ldi	r25, 0x0F	; 15
     942:	01 97       	sbiw	r24, 0x01	; 1
     944:	f1 f7       	brne	.-4      	; 0x942 <_Z8glcd_intv+0x1a>
     946:	00 c0       	rjmp	.+0      	; 0x948 <_Z8glcd_intv+0x20>
     948:	00 00       	nop
     94a:	82 e0       	ldi	r24, 0x02	; 2
     94c:	0e 94 18 04 	call	0x830	; 0x830 <_Z15glcd_PageSelectc>
     950:	8f e9       	ldi	r24, 0x9F	; 159
     952:	9f e0       	ldi	r25, 0x0F	; 15
     954:	01 97       	sbiw	r24, 0x01	; 1
     956:	f1 f7       	brne	.-4      	; 0x954 <_Z8glcd_intv+0x2c>
     958:	00 c0       	rjmp	.+0      	; 0x95a <_Z8glcd_intv+0x32>
     95a:	00 00       	nop
     95c:	8f e3       	ldi	r24, 0x3F	; 63
     95e:	0e 94 02 04 	call	0x804	; 0x804 <_Z8glcd_cmdh>
     962:	80 ec       	ldi	r24, 0xC0	; 192
     964:	0e 94 02 04 	call	0x804	; 0x804 <_Z8glcd_cmdh>
     968:	8f e9       	ldi	r24, 0x9F	; 159
     96a:	9f e0       	ldi	r25, 0x0F	; 15
     96c:	01 97       	sbiw	r24, 0x01	; 1
     96e:	f1 f7       	brne	.-4      	; 0x96c <_Z8glcd_intv+0x44>
     970:	00 c0       	rjmp	.+0      	; 0x972 <_Z8glcd_intv+0x4a>
     972:	00 00       	nop
     974:	83 e0       	ldi	r24, 0x03	; 3
     976:	0e 94 18 04 	call	0x830	; 0x830 <_Z15glcd_PageSelectc>
     97a:	8f e9       	ldi	r24, 0x9F	; 159
     97c:	9f e0       	ldi	r25, 0x0F	; 15
     97e:	01 97       	sbiw	r24, 0x01	; 1
     980:	f1 f7       	brne	.-4      	; 0x97e <_Z8glcd_intv+0x56>
     982:	00 c0       	rjmp	.+0      	; 0x984 <_Z8glcd_intv+0x5c>
     984:	00 00       	nop
     986:	08 95       	ret

00000988 <_Z10glcd_clearv>:
     988:	0f 93       	push	r16
     98a:	1f 93       	push	r17
     98c:	cf 93       	push	r28
     98e:	df 93       	push	r29
     990:	00 e0       	ldi	r16, 0x00	; 0
     992:	80 2f       	mov	r24, r16
     994:	0e 94 18 04 	call	0x830	; 0x830 <_Z15glcd_PageSelectc>
     998:	60 e0       	ldi	r22, 0x00	; 0
     99a:	80 e0       	ldi	r24, 0x00	; 0
     99c:	0e 94 2f 04 	call	0x85e	; 0x85e <_Z14glcd_SetCursorhh>
     9a0:	10 e0       	ldi	r17, 0x00	; 0
     9a2:	0c c0       	rjmp	.+24     	; 0x9bc <_Z10glcd_clearv+0x34>
     9a4:	80 e0       	ldi	r24, 0x00	; 0
     9a6:	0e 94 0e 04 	call	0x81c	; 0x81c <_Z8glcd_dtah>
     9aa:	21 97       	sbiw	r28, 0x01	; 1
     9ac:	d9 f7       	brne	.-10     	; 0x9a4 <_Z10glcd_clearv+0x1c>
     9ae:	60 e0       	ldi	r22, 0x00	; 0
     9b0:	81 2f       	mov	r24, r17
     9b2:	0e 94 2f 04 	call	0x85e	; 0x85e <_Z14glcd_SetCursorhh>
     9b6:	1f 5f       	subi	r17, 0xFF	; 255
     9b8:	19 30       	cpi	r17, 0x09	; 9
     9ba:	19 f0       	breq	.+6      	; 0x9c2 <_Z10glcd_clearv+0x3a>
     9bc:	c1 e4       	ldi	r28, 0x41	; 65
     9be:	d0 e0       	ldi	r29, 0x00	; 0
     9c0:	f1 cf       	rjmp	.-30     	; 0x9a4 <_Z10glcd_clearv+0x1c>
     9c2:	0f 5f       	subi	r16, 0xFF	; 255
     9c4:	02 30       	cpi	r16, 0x02	; 2
     9c6:	29 f7       	brne	.-54     	; 0x992 <_Z10glcd_clearv+0xa>
     9c8:	df 91       	pop	r29
     9ca:	cf 91       	pop	r28
     9cc:	1f 91       	pop	r17
     9ce:	0f 91       	pop	r16
     9d0:	08 95       	ret

000009d2 <_Z8I2C_Initv>:
     9d2:	11 b8       	out	0x01, r1	; 1
     9d4:	88 e4       	ldi	r24, 0x48	; 72
     9d6:	80 b9       	out	0x00, r24	; 0
     9d8:	84 e0       	ldi	r24, 0x04	; 4
     9da:	86 bf       	out	0x36, r24	; 54
     9dc:	08 95       	ret

000009de <_Z9I2C_Startv>:
     9de:	84 ea       	ldi	r24, 0xA4	; 164
     9e0:	86 bf       	out	0x36, r24	; 54
     9e2:	06 b6       	in	r0, 0x36	; 54
     9e4:	07 fe       	sbrs	r0, 7
     9e6:	fd cf       	rjmp	.-6      	; 0x9e2 <_Z9I2C_Startv+0x4>
     9e8:	91 b1       	in	r25, 0x01	; 1
     9ea:	98 7f       	andi	r25, 0xF8	; 248
     9ec:	81 e0       	ldi	r24, 0x01	; 1
     9ee:	98 30       	cpi	r25, 0x08	; 8
     9f0:	09 f0       	breq	.+2      	; 0x9f4 <_Z9I2C_Startv+0x16>
     9f2:	80 e0       	ldi	r24, 0x00	; 0
     9f4:	08 95       	ret

000009f6 <_Z9I2C_Writeh>:
     9f6:	83 b9       	out	0x03, r24	; 3
     9f8:	84 e8       	ldi	r24, 0x84	; 132
     9fa:	86 bf       	out	0x36, r24	; 54
     9fc:	06 b6       	in	r0, 0x36	; 54
     9fe:	07 fe       	sbrs	r0, 7
     a00:	fd cf       	rjmp	.-6      	; 0x9fc <_Z9I2C_Writeh+0x6>
     a02:	91 b1       	in	r25, 0x01	; 1
     a04:	98 7f       	andi	r25, 0xF8	; 248
     a06:	81 e0       	ldi	r24, 0x01	; 1
     a08:	98 32       	cpi	r25, 0x28	; 40
     a0a:	09 f0       	breq	.+2      	; 0xa0e <_Z9I2C_Writeh+0x18>
     a0c:	80 e0       	ldi	r24, 0x00	; 0
     a0e:	08 95       	ret

00000a10 <_Z8I2C_ReadPh>:
     a10:	24 e8       	ldi	r18, 0x84	; 132
     a12:	26 bf       	out	0x36, r18	; 54
     a14:	06 b6       	in	r0, 0x36	; 54
     a16:	07 fe       	sbrs	r0, 7
     a18:	fd cf       	rjmp	.-6      	; 0xa14 <_Z8I2C_ReadPh+0x4>
     a1a:	23 b1       	in	r18, 0x03	; 3
     a1c:	fc 01       	movw	r30, r24
     a1e:	20 83       	st	Z, r18
     a20:	91 b1       	in	r25, 0x01	; 1
     a22:	98 7f       	andi	r25, 0xF8	; 248
     a24:	81 e0       	ldi	r24, 0x01	; 1
     a26:	98 35       	cpi	r25, 0x58	; 88
     a28:	09 f0       	breq	.+2      	; 0xa2c <_Z8I2C_ReadPh+0x1c>
     a2a:	80 e0       	ldi	r24, 0x00	; 0
     a2c:	08 95       	ret

00000a2e <_Z14BCD_To_Decimalh>:
     a2e:	98 2f       	mov	r25, r24
     a30:	92 95       	swap	r25
     a32:	9f 70       	andi	r25, 0x0F	; 15
     a34:	99 0f       	add	r25, r25
     a36:	29 2f       	mov	r18, r25
     a38:	22 0f       	add	r18, r18
     a3a:	22 0f       	add	r18, r18
     a3c:	92 0f       	add	r25, r18
     a3e:	8f 70       	andi	r24, 0x0F	; 15
     a40:	89 0f       	add	r24, r25
     a42:	08 95       	ret

00000a44 <_Z11DS1307_Readh>:
     a44:	1f 93       	push	r17
     a46:	cf 93       	push	r28
     a48:	df 93       	push	r29
     a4a:	1f 92       	push	r1
     a4c:	cd b7       	in	r28, 0x3d	; 61
     a4e:	de b7       	in	r29, 0x3e	; 62
     a50:	18 2f       	mov	r17, r24
     a52:	19 82       	std	Y+1, r1	; 0x01
     a54:	0e 94 ef 04 	call	0x9de	; 0x9de <_Z9I2C_Startv>
     a58:	80 ed       	ldi	r24, 0xD0	; 208
     a5a:	0e 94 fb 04 	call	0x9f6	; 0x9f6 <_Z9I2C_Writeh>
     a5e:	81 2f       	mov	r24, r17
     a60:	0e 94 fb 04 	call	0x9f6	; 0x9f6 <_Z9I2C_Writeh>
     a64:	0e 94 ef 04 	call	0x9de	; 0x9de <_Z9I2C_Startv>
     a68:	81 ed       	ldi	r24, 0xD1	; 209
     a6a:	0e 94 fb 04 	call	0x9f6	; 0x9f6 <_Z9I2C_Writeh>
     a6e:	ce 01       	movw	r24, r28
     a70:	01 96       	adiw	r24, 0x01	; 1
     a72:	0e 94 08 05 	call	0xa10	; 0xa10 <_Z8I2C_ReadPh>
     a76:	84 e9       	ldi	r24, 0x94	; 148
     a78:	86 bf       	out	0x36, r24	; 54
     a7a:	89 81       	ldd	r24, Y+1	; 0x01
     a7c:	0f 90       	pop	r0
     a7e:	df 91       	pop	r29
     a80:	cf 91       	pop	r28
     a82:	1f 91       	pop	r17
     a84:	08 95       	ret

00000a86 <_Z12DS1307_Writehh>:
     a86:	cf 93       	push	r28
     a88:	df 93       	push	r29
     a8a:	d8 2f       	mov	r29, r24
     a8c:	c6 2f       	mov	r28, r22
     a8e:	0e 94 ef 04 	call	0x9de	; 0x9de <_Z9I2C_Startv>
     a92:	80 ed       	ldi	r24, 0xD0	; 208
     a94:	0e 94 fb 04 	call	0x9f6	; 0x9f6 <_Z9I2C_Writeh>
     a98:	8d 2f       	mov	r24, r29
     a9a:	0e 94 fb 04 	call	0x9f6	; 0x9f6 <_Z9I2C_Writeh>
     a9e:	8c 2f       	mov	r24, r28
     aa0:	0e 94 fb 04 	call	0x9f6	; 0x9f6 <_Z9I2C_Writeh>
     aa4:	84 e9       	ldi	r24, 0x94	; 148
     aa6:	86 bf       	out	0x36, r24	; 54
     aa8:	df 91       	pop	r29
     aaa:	cf 91       	pop	r28
     aac:	08 95       	ret

00000aae <_Z11DS1307_Initv>:
     aae:	0e 94 e9 04 	call	0x9d2	; 0x9d2 <_Z8I2C_Initv>
     ab2:	8f e3       	ldi	r24, 0x3F	; 63
     ab4:	9c e9       	ldi	r25, 0x9C	; 156
     ab6:	01 97       	sbiw	r24, 0x01	; 1
     ab8:	f1 f7       	brne	.-4      	; 0xab6 <_Z11DS1307_Initv+0x8>
     aba:	00 c0       	rjmp	.+0      	; 0xabc <_Z11DS1307_Initv+0xe>
     abc:	00 00       	nop
     abe:	65 e0       	ldi	r22, 0x05	; 5
     ac0:	8e e0       	ldi	r24, 0x0E	; 14
     ac2:	0e 94 43 05 	call	0xa86	; 0xa86 <_Z12DS1307_Writehh>
     ac6:	60 e0       	ldi	r22, 0x00	; 0
     ac8:	8f e0       	ldi	r24, 0x0F	; 15
     aca:	0e 94 43 05 	call	0xa86	; 0xa86 <_Z12DS1307_Writehh>
     ace:	08 95       	ret

00000ad0 <_Z14DS1307_GetTimePhS_S_S_h>:
     ad0:	af 92       	push	r10
     ad2:	bf 92       	push	r11
     ad4:	cf 92       	push	r12
     ad6:	df 92       	push	r13
     ad8:	ef 92       	push	r14
     ada:	ff 92       	push	r15
     adc:	0f 93       	push	r16
     ade:	cf 93       	push	r28
     ae0:	df 93       	push	r29
     ae2:	ec 01       	movw	r28, r24
     ae4:	7b 01       	movw	r14, r22
     ae6:	6a 01       	movw	r12, r20
     ae8:	59 01       	movw	r10, r18
     aea:	80 e0       	ldi	r24, 0x00	; 0
     aec:	0e 94 22 05 	call	0xa44	; 0xa44 <_Z11DS1307_Readh>
     af0:	0e 94 17 05 	call	0xa2e	; 0xa2e <_Z14BCD_To_Decimalh>
     af4:	f6 01       	movw	r30, r12
     af6:	80 83       	st	Z, r24
     af8:	81 e0       	ldi	r24, 0x01	; 1
     afa:	0e 94 22 05 	call	0xa44	; 0xa44 <_Z11DS1307_Readh>
     afe:	0e 94 17 05 	call	0xa2e	; 0xa2e <_Z14BCD_To_Decimalh>
     b02:	f7 01       	movw	r30, r14
     b04:	80 83       	st	Z, r24
     b06:	01 30       	cpi	r16, 0x01	; 1
     b08:	81 f4       	brne	.+32     	; 0xb2a <_Z14DS1307_GetTimePhS_S_S_h+0x5a>
     b0a:	82 e0       	ldi	r24, 0x02	; 2
     b0c:	0e 94 22 05 	call	0xa44	; 0xa44 <_Z11DS1307_Readh>
     b10:	85 fb       	bst	r24, 5
     b12:	88 27       	eor	r24, r24
     b14:	80 f9       	bld	r24, 0
     b16:	f5 01       	movw	r30, r10
     b18:	80 83       	st	Z, r24
     b1a:	82 e0       	ldi	r24, 0x02	; 2
     b1c:	0e 94 22 05 	call	0xa44	; 0xa44 <_Z11DS1307_Readh>
     b20:	8f 71       	andi	r24, 0x1F	; 31
     b22:	0e 94 17 05 	call	0xa2e	; 0xa2e <_Z14BCD_To_Decimalh>
     b26:	88 83       	st	Y, r24
     b28:	07 c0       	rjmp	.+14     	; 0xb38 <_Z14DS1307_GetTimePhS_S_S_h+0x68>
     b2a:	82 e0       	ldi	r24, 0x02	; 2
     b2c:	0e 94 22 05 	call	0xa44	; 0xa44 <_Z11DS1307_Readh>
     b30:	8f 73       	andi	r24, 0x3F	; 63
     b32:	0e 94 17 05 	call	0xa2e	; 0xa2e <_Z14BCD_To_Decimalh>
     b36:	88 83       	st	Y, r24
     b38:	df 91       	pop	r29
     b3a:	cf 91       	pop	r28
     b3c:	0f 91       	pop	r16
     b3e:	ff 90       	pop	r15
     b40:	ef 90       	pop	r14
     b42:	df 90       	pop	r13
     b44:	cf 90       	pop	r12
     b46:	bf 90       	pop	r11
     b48:	af 90       	pop	r10
     b4a:	08 95       	ret

00000b4c <_Z14DS1307_GetDatePhS_S_Pj>:
     b4c:	cf 92       	push	r12
     b4e:	df 92       	push	r13
     b50:	ef 92       	push	r14
     b52:	ff 92       	push	r15
     b54:	0f 93       	push	r16
     b56:	1f 93       	push	r17
     b58:	cf 93       	push	r28
     b5a:	df 93       	push	r29
     b5c:	7c 01       	movw	r14, r24
     b5e:	6b 01       	movw	r12, r22
     b60:	ea 01       	movw	r28, r20
     b62:	89 01       	movw	r16, r18
     b64:	86 e0       	ldi	r24, 0x06	; 6
     b66:	0e 94 22 05 	call	0xa44	; 0xa44 <_Z11DS1307_Readh>
     b6a:	0e 94 17 05 	call	0xa2e	; 0xa2e <_Z14BCD_To_Decimalh>
     b6e:	90 e0       	ldi	r25, 0x00	; 0
     b70:	f8 01       	movw	r30, r16
     b72:	91 83       	std	Z+1, r25	; 0x01
     b74:	80 83       	st	Z, r24
     b76:	85 e0       	ldi	r24, 0x05	; 5
     b78:	0e 94 22 05 	call	0xa44	; 0xa44 <_Z11DS1307_Readh>
     b7c:	88 83       	st	Y, r24
     b7e:	f8 01       	movw	r30, r16
     b80:	20 81       	ld	r18, Z
     b82:	31 81       	ldd	r19, Z+1	; 0x01
     b84:	20 53       	subi	r18, 0x30	; 48
     b86:	38 4f       	sbci	r19, 0xF8	; 248
     b88:	e8 2f       	mov	r30, r24
     b8a:	f0 e0       	ldi	r31, 0x00	; 0
     b8c:	ee 0f       	add	r30, r30
     b8e:	ef 2f       	mov	r30, r31
     b90:	ee 1f       	adc	r30, r30
     b92:	ff 0b       	sbc	r31, r31
     b94:	44 e6       	ldi	r20, 0x64	; 100
     b96:	4e 9f       	mul	r20, r30
     b98:	c0 01       	movw	r24, r0
     b9a:	4f 9f       	mul	r20, r31
     b9c:	90 0d       	add	r25, r0
     b9e:	11 24       	eor	r1, r1
     ba0:	82 0f       	add	r24, r18
     ba2:	93 1f       	adc	r25, r19
     ba4:	f8 01       	movw	r30, r16
     ba6:	91 83       	std	Z+1, r25	; 0x01
     ba8:	80 83       	st	Z, r24
     baa:	88 81       	ld	r24, Y
     bac:	8f 71       	andi	r24, 0x1F	; 31
     bae:	0e 94 17 05 	call	0xa2e	; 0xa2e <_Z14BCD_To_Decimalh>
     bb2:	88 83       	st	Y, r24
     bb4:	84 e0       	ldi	r24, 0x04	; 4
     bb6:	0e 94 22 05 	call	0xa44	; 0xa44 <_Z11DS1307_Readh>
     bba:	8f 73       	andi	r24, 0x3F	; 63
     bbc:	0e 94 17 05 	call	0xa2e	; 0xa2e <_Z14BCD_To_Decimalh>
     bc0:	f6 01       	movw	r30, r12
     bc2:	80 83       	st	Z, r24
     bc4:	83 e0       	ldi	r24, 0x03	; 3
     bc6:	0e 94 22 05 	call	0xa44	; 0xa44 <_Z11DS1307_Readh>
     bca:	87 70       	andi	r24, 0x07	; 7
     bcc:	0e 94 17 05 	call	0xa2e	; 0xa2e <_Z14BCD_To_Decimalh>
     bd0:	f7 01       	movw	r30, r14
     bd2:	80 83       	st	Z, r24
     bd4:	df 91       	pop	r29
     bd6:	cf 91       	pop	r28
     bd8:	1f 91       	pop	r17
     bda:	0f 91       	pop	r16
     bdc:	ff 90       	pop	r15
     bde:	ef 90       	pop	r14
     be0:	df 90       	pop	r13
     be2:	cf 90       	pop	r12
     be4:	08 95       	ret

00000be6 <_Z3m2siiiPiS_S_>:
//============================================================================================
int m2s(int ym,int mm,int dm,int *ys,int *ms,int *ds)
{
     be6:	2f 92       	push	r2
     be8:	3f 92       	push	r3
     bea:	4f 92       	push	r4
     bec:	5f 92       	push	r5
     bee:	6f 92       	push	r6
     bf0:	7f 92       	push	r7
     bf2:	8f 92       	push	r8
     bf4:	9f 92       	push	r9
     bf6:	af 92       	push	r10
     bf8:	bf 92       	push	r11
     bfa:	cf 92       	push	r12
     bfc:	df 92       	push	r13
     bfe:	ef 92       	push	r14
     c00:	ff 92       	push	r15
     c02:	0f 93       	push	r16
     c04:	1f 93       	push	r17
     c06:	cf 93       	push	r28
     c08:	df 93       	push	r29
     c0a:	00 d0       	rcall	.+0      	; 0xc0c <_Z3m2siiiPiS_S_+0x26>
     c0c:	cd b7       	in	r28, 0x3d	; 61
     c0e:	de b7       	in	r29, 0x3e	; 62
     c10:	6c 01       	movw	r12, r24
     c12:	fb 01       	movw	r30, r22
     c14:	2a 01       	movw	r4, r20
     c16:	59 01       	movw	r10, r18
     c18:	fa 82       	std	Y+2, r15	; 0x02
     c1a:	e9 82       	std	Y+1, r14	; 0x01
	unsigned long int ys1,ym1;
	int ym2,ys2,mm1,ms1,k,ms0;
	ym1=ym+2000;
     c1c:	4c 01       	movw	r8, r24
     c1e:	20 e3       	ldi	r18, 0x30	; 48
     c20:	82 1a       	sub	r8, r18
     c22:	28 ef       	ldi	r18, 0xF8	; 248
     c24:	92 0a       	sbc	r9, r18
     c26:	c4 01       	movw	r24, r8
     c28:	09 2c       	mov	r0, r9
     c2a:	00 0c       	add	r0, r0
     c2c:	aa 0b       	sbc	r26, r26
     c2e:	bb 0b       	sbc	r27, r27
	k=ym1%4;
     c30:	43 e0       	ldi	r20, 0x03	; 3
     c32:	84 22       	and	r8, r20
     c34:	99 24       	eor	r9, r9
	ym1--;
     c36:	9c 01       	movw	r18, r24
     c38:	ad 01       	movw	r20, r26
     c3a:	21 50       	subi	r18, 0x01	; 1
     c3c:	31 09       	sbc	r19, r1
     c3e:	41 09       	sbc	r20, r1
     c40:	51 09       	sbc	r21, r1
	ym1=ym1*365;
     c42:	ad e6       	ldi	r26, 0x6D	; 109
     c44:	b1 e0       	ldi	r27, 0x01	; 1
     c46:	0e 94 0f 0f 	call	0x1e1e	; 0x1e1e <__muluhisi3>
	if(mm==1){mm1=0;}
	if(mm==2){mm1=31;}
     c4a:	e2 30       	cpi	r30, 0x02	; 2
     c4c:	f1 05       	cpc	r31, r1
     c4e:	49 f0       	breq	.+18     	; 0xc62 <_Z3m2siiiPiS_S_+0x7c>
	if(mm==3){mm1=59;}
     c50:	e3 30       	cpi	r30, 0x03	; 3
     c52:	f1 05       	cpc	r31, r1
     c54:	61 f0       	breq	.+24     	; 0xc6e <_Z3m2siiiPiS_S_+0x88>
	if(mm==4){mm1=90;}
     c56:	e4 30       	cpi	r30, 0x04	; 4
     c58:	f1 05       	cpc	r31, r1
     c5a:	79 f0       	breq	.+30     	; 0xc7a <_Z3m2siiiPiS_S_+0x94>
     c5c:	20 e0       	ldi	r18, 0x00	; 0
     c5e:	30 e0       	ldi	r19, 0x00	; 0
     c60:	02 c0       	rjmp	.+4      	; 0xc66 <_Z3m2siiiPiS_S_+0x80>
	ym1=ym+2000;
	k=ym1%4;
	ym1--;
	ym1=ym1*365;
	if(mm==1){mm1=0;}
	if(mm==2){mm1=31;}
     c62:	2f e1       	ldi	r18, 0x1F	; 31
     c64:	30 e0       	ldi	r19, 0x00	; 0
	if(mm==3){mm1=59;}
	if(mm==4){mm1=90;}
	if(mm==5){mm1=120;}
     c66:	e5 30       	cpi	r30, 0x05	; 5
     c68:	f1 05       	cpc	r31, r1
     c6a:	69 f0       	breq	.+26     	; 0xc86 <_Z3m2siiiPiS_S_+0xa0>
     c6c:	02 c0       	rjmp	.+4      	; 0xc72 <_Z3m2siiiPiS_S_+0x8c>
	k=ym1%4;
	ym1--;
	ym1=ym1*365;
	if(mm==1){mm1=0;}
	if(mm==2){mm1=31;}
	if(mm==3){mm1=59;}
     c6e:	2b e3       	ldi	r18, 0x3B	; 59
     c70:	30 e0       	ldi	r19, 0x00	; 0
	if(mm==4){mm1=90;}
	if(mm==5){mm1=120;}
	if(mm==6){mm1=151;}
     c72:	e6 30       	cpi	r30, 0x06	; 6
     c74:	f1 05       	cpc	r31, r1
     c76:	69 f0       	breq	.+26     	; 0xc92 <_Z3m2siiiPiS_S_+0xac>
     c78:	02 c0       	rjmp	.+4      	; 0xc7e <_Z3m2siiiPiS_S_+0x98>
	ym1--;
	ym1=ym1*365;
	if(mm==1){mm1=0;}
	if(mm==2){mm1=31;}
	if(mm==3){mm1=59;}
	if(mm==4){mm1=90;}
     c7a:	2a e5       	ldi	r18, 0x5A	; 90
     c7c:	30 e0       	ldi	r19, 0x00	; 0
	if(mm==5){mm1=120;}
	if(mm==6){mm1=151;}
	if(mm==7){mm1=181;}
     c7e:	e7 30       	cpi	r30, 0x07	; 7
     c80:	f1 05       	cpc	r31, r1
     c82:	69 f0       	breq	.+26     	; 0xc9e <_Z3m2siiiPiS_S_+0xb8>
     c84:	02 c0       	rjmp	.+4      	; 0xc8a <_Z3m2siiiPiS_S_+0xa4>
	ym1=ym1*365;
	if(mm==1){mm1=0;}
	if(mm==2){mm1=31;}
	if(mm==3){mm1=59;}
	if(mm==4){mm1=90;}
	if(mm==5){mm1=120;}
     c86:	28 e7       	ldi	r18, 0x78	; 120
     c88:	30 e0       	ldi	r19, 0x00	; 0
	if(mm==6){mm1=151;}
	if(mm==7){mm1=181;}
	if(mm==8){mm1=212;}
     c8a:	e8 30       	cpi	r30, 0x08	; 8
     c8c:	f1 05       	cpc	r31, r1
     c8e:	69 f0       	breq	.+26     	; 0xcaa <_Z3m2siiiPiS_S_+0xc4>
     c90:	02 c0       	rjmp	.+4      	; 0xc96 <_Z3m2siiiPiS_S_+0xb0>
	if(mm==1){mm1=0;}
	if(mm==2){mm1=31;}
	if(mm==3){mm1=59;}
	if(mm==4){mm1=90;}
	if(mm==5){mm1=120;}
	if(mm==6){mm1=151;}
     c92:	27 e9       	ldi	r18, 0x97	; 151
     c94:	30 e0       	ldi	r19, 0x00	; 0
	if(mm==7){mm1=181;}
	if(mm==8){mm1=212;}
	if(mm==9){mm1=243;}
     c96:	e9 30       	cpi	r30, 0x09	; 9
     c98:	f1 05       	cpc	r31, r1
     c9a:	69 f0       	breq	.+26     	; 0xcb6 <_Z3m2siiiPiS_S_+0xd0>
     c9c:	02 c0       	rjmp	.+4      	; 0xca2 <_Z3m2siiiPiS_S_+0xbc>
	if(mm==2){mm1=31;}
	if(mm==3){mm1=59;}
	if(mm==4){mm1=90;}
	if(mm==5){mm1=120;}
	if(mm==6){mm1=151;}
	if(mm==7){mm1=181;}
     c9e:	25 eb       	ldi	r18, 0xB5	; 181
     ca0:	30 e0       	ldi	r19, 0x00	; 0
	if(mm==8){mm1=212;}
	if(mm==9){mm1=243;}
	if(mm==10){mm1=273;}
     ca2:	ea 30       	cpi	r30, 0x0A	; 10
     ca4:	f1 05       	cpc	r31, r1
     ca6:	71 f0       	breq	.+28     	; 0xcc4 <_Z3m2siiiPiS_S_+0xde>
     ca8:	02 c0       	rjmp	.+4      	; 0xcae <_Z3m2siiiPiS_S_+0xc8>
	if(mm==3){mm1=59;}
	if(mm==4){mm1=90;}
	if(mm==5){mm1=120;}
	if(mm==6){mm1=151;}
	if(mm==7){mm1=181;}
	if(mm==8){mm1=212;}
     caa:	24 ed       	ldi	r18, 0xD4	; 212
     cac:	30 e0       	ldi	r19, 0x00	; 0
	if(mm==9){mm1=243;}
	if(mm==10){mm1=273;}
	if(mm==11){mm1=304;}
     cae:	eb 30       	cpi	r30, 0x0B	; 11
     cb0:	f1 05       	cpc	r31, r1
     cb2:	59 f0       	breq	.+22     	; 0xcca <_Z3m2siiiPiS_S_+0xe4>
     cb4:	02 c0       	rjmp	.+4      	; 0xcba <_Z3m2siiiPiS_S_+0xd4>
	if(mm==4){mm1=90;}
	if(mm==5){mm1=120;}
	if(mm==6){mm1=151;}
	if(mm==7){mm1=181;}
	if(mm==8){mm1=212;}
	if(mm==9){mm1=243;}
     cb6:	23 ef       	ldi	r18, 0xF3	; 243
     cb8:	30 e0       	ldi	r19, 0x00	; 0
	if(mm==10){mm1=273;}
	if(mm==11){mm1=304;}
	if(mm==12){mm1=334;}
     cba:	3c 97       	sbiw	r30, 0x0c	; 12
     cbc:	41 f4       	brne	.+16     	; 0xcce <_Z3m2siiiPiS_S_+0xe8>
     cbe:	2e e4       	ldi	r18, 0x4E	; 78
     cc0:	31 e0       	ldi	r19, 0x01	; 1
     cc2:	05 c0       	rjmp	.+10     	; 0xcce <_Z3m2siiiPiS_S_+0xe8>
	if(mm==5){mm1=120;}
	if(mm==6){mm1=151;}
	if(mm==7){mm1=181;}
	if(mm==8){mm1=212;}
	if(mm==9){mm1=243;}
	if(mm==10){mm1=273;}
     cc4:	21 e1       	ldi	r18, 0x11	; 17
     cc6:	31 e0       	ldi	r19, 0x01	; 1
     cc8:	02 c0       	rjmp	.+4      	; 0xcce <_Z3m2siiiPiS_S_+0xe8>
	if(mm==11){mm1=304;}
     cca:	20 e3       	ldi	r18, 0x30	; 48
     ccc:	31 e0       	ldi	r19, 0x01	; 1
	if(mm==12){mm1=334;}
	if(k==0){mm1++;}
     cce:	89 28       	or	r8, r9
     cd0:	11 f4       	brne	.+4      	; 0xcd6 <_Z3m2siiiPiS_S_+0xf0>
     cd2:	2f 5f       	subi	r18, 0xFF	; 255
     cd4:	3f 4f       	sbci	r19, 0xFF	; 255
	ym1=ym1+mm1;
	ym1=ym1+dm;
	ym2=ym+2000;
	ym2--;
     cd6:	a1 e3       	ldi	r26, 0x31	; 49
     cd8:	ca 1a       	sub	r12, r26
     cda:	a8 ef       	ldi	r26, 0xF8	; 248
     cdc:	da 0a       	sbc	r13, r26
	ym2=ym2/4;
     cde:	a6 01       	movw	r20, r12
     ce0:	12 f4       	brpl	.+4      	; 0xce6 <_Z3m2siiiPiS_S_+0x100>
     ce2:	4d 5f       	subi	r20, 0xFD	; 253
     ce4:	5f 4f       	sbci	r21, 0xFF	; 255
     ce6:	55 95       	asr	r21
     ce8:	47 95       	ror	r20
     cea:	55 95       	asr	r21
     cec:	47 95       	ror	r20
	if(mm==10){mm1=273;}
	if(mm==11){mm1=304;}
	if(mm==12){mm1=334;}
	if(k==0){mm1++;}
	ym1=ym1+mm1;
	ym1=ym1+dm;
     cee:	05 2c       	mov	r0, r5
     cf0:	00 0c       	add	r0, r0
     cf2:	66 08       	sbc	r6, r6
     cf4:	77 08       	sbc	r7, r7
     cf6:	43 01       	movw	r8, r6
     cf8:	32 01       	movw	r6, r4
     cfa:	b3 e5       	ldi	r27, 0x53	; 83
     cfc:	6b 1a       	sub	r6, r27
     cfe:	b6 e7       	ldi	r27, 0x76	; 118
     d00:	7b 0a       	sbc	r7, r27
     d02:	b3 e0       	ldi	r27, 0x03	; 3
     d04:	8b 0a       	sbc	r8, r27
     d06:	91 08       	sbc	r9, r1
	ym2=ym+2000;
	ym2--;
	ym2=ym2/4;
	ym1=ym1+ym2;
     d08:	1a 01       	movw	r2, r20
     d0a:	05 2e       	mov	r0, r21
     d0c:	00 0c       	add	r0, r0
     d0e:	44 08       	sbc	r4, r4
     d10:	55 08       	sbc	r5, r5
     d12:	74 01       	movw	r14, r8
     d14:	63 01       	movw	r12, r6
     d16:	c2 0c       	add	r12, r2
     d18:	d3 1c       	adc	r13, r3
     d1a:	e4 1c       	adc	r14, r4
     d1c:	f5 1c       	adc	r15, r5
     d1e:	26 01       	movw	r4, r12
     d20:	37 01       	movw	r6, r14
     d22:	46 0e       	add	r4, r22
     d24:	57 1e       	adc	r5, r23
     d26:	68 1e       	adc	r6, r24
     d28:	79 1e       	adc	r7, r25
	ym1=ym1-226899;
	ys2=ym2-155;
     d2a:	4b 59       	subi	r20, 0x9B	; 155
     d2c:	51 09       	sbc	r21, r1
	ys1=ym1-ys2;
     d2e:	05 2e       	mov	r0, r21
     d30:	00 0c       	add	r0, r0
     d32:	66 0b       	sbc	r22, r22
     d34:	77 0b       	sbc	r23, r23
     d36:	d3 01       	movw	r26, r6
     d38:	c2 01       	movw	r24, r4
     d3a:	84 1b       	sub	r24, r20
     d3c:	95 0b       	sbc	r25, r21
     d3e:	a6 0b       	sbc	r26, r22
     d40:	b7 0b       	sbc	r27, r23
     d42:	ac 01       	movw	r20, r24
     d44:	bd 01       	movw	r22, r26
	if(mm==9){mm1=243;}
	if(mm==10){mm1=273;}
	if(mm==11){mm1=304;}
	if(mm==12){mm1=334;}
	if(k==0){mm1++;}
	ym1=ym1+mm1;
     d46:	c9 01       	movw	r24, r18
     d48:	33 0f       	add	r19, r19
     d4a:	aa 0b       	sbc	r26, r26
     d4c:	bb 0b       	sbc	r27, r27
	ym2--;
	ym2=ym2/4;
	ym1=ym1+ym2;
	ym1=ym1-226899;
	ys2=ym2-155;
	ys1=ym1-ys2;
     d4e:	6a 01       	movw	r12, r20
     d50:	7b 01       	movw	r14, r22
     d52:	c8 0e       	add	r12, r24
     d54:	d9 1e       	adc	r13, r25
     d56:	ea 1e       	adc	r14, r26
     d58:	fb 1e       	adc	r15, r27
     d5a:	c7 01       	movw	r24, r14
     d5c:	b6 01       	movw	r22, r12
	*ys=ys1/365;
     d5e:	2d e6       	ldi	r18, 0x6D	; 109
     d60:	31 e0       	ldi	r19, 0x01	; 1
     d62:	40 e0       	ldi	r20, 0x00	; 0
     d64:	50 e0       	ldi	r21, 0x00	; 0
     d66:	0e 94 de 0e 	call	0x1dbc	; 0x1dbc <__udivmodsi4>
	*ys=*ys-1299;
     d6a:	29 01       	movw	r4, r18
     d6c:	a3 e1       	ldi	r26, 0x13	; 19
     d6e:	4a 1a       	sub	r4, r26
     d70:	a5 e0       	ldi	r26, 0x05	; 5
     d72:	5a 0a       	sbc	r5, r26
     d74:	f5 01       	movw	r30, r10
     d76:	51 82       	std	Z+1, r5	; 0x01
     d78:	40 82       	st	Z, r4
	ms1=ys1%365;
     d7a:	fb 01       	movw	r30, r22
	ms0=1;
	if(ms1>31){ms0++;ms1=ms1-31;}
     d7c:	60 32       	cpi	r22, 0x20	; 32
     d7e:	71 05       	cpc	r23, r1
     d80:	ac f0       	brlt	.+42     	; 0xdac <_Z3m2siiiPiS_S_+0x1c6>
     d82:	9b 01       	movw	r18, r22
     d84:	2f 51       	subi	r18, 0x1F	; 31
     d86:	31 09       	sbc	r19, r1
	if(ms1>31){ms0++;ms1=ms1-31;}
     d88:	20 32       	cpi	r18, 0x20	; 32
     d8a:	31 05       	cpc	r19, r1
     d8c:	c4 f0       	brlt	.+48     	; 0xdbe <_Z3m2siiiPiS_S_+0x1d8>
     d8e:	2f 51       	subi	r18, 0x1F	; 31
     d90:	31 09       	sbc	r19, r1
	if(ms1>31){ms0++;ms1=ms1-31;}
     d92:	20 32       	cpi	r18, 0x20	; 32
     d94:	31 05       	cpc	r19, r1
     d96:	ec f0       	brlt	.+58     	; 0xdd2 <_Z3m2siiiPiS_S_+0x1ec>
     d98:	2f 51       	subi	r18, 0x1F	; 31
     d9a:	31 09       	sbc	r19, r1
	if(ms1>31){ms0++;ms1=ms1-31;}
     d9c:	20 32       	cpi	r18, 0x20	; 32
     d9e:	31 05       	cpc	r19, r1
     da0:	e4 f0       	brlt	.+56     	; 0xdda <_Z3m2siiiPiS_S_+0x1f4>
     da2:	ec 57       	subi	r30, 0x7C	; 124
     da4:	f1 09       	sbc	r31, r1
     da6:	25 e0       	ldi	r18, 0x05	; 5
     da8:	30 e0       	ldi	r19, 0x00	; 0
     daa:	02 c0       	rjmp	.+4      	; 0xdb0 <_Z3m2siiiPiS_S_+0x1ca>
	ys2=ym2-155;
	ys1=ym1-ys2;
	*ys=ys1/365;
	*ys=*ys-1299;
	ms1=ys1%365;
	ms0=1;
     dac:	21 e0       	ldi	r18, 0x01	; 1
     dae:	30 e0       	ldi	r19, 0x00	; 0
	if(ms1>31){ms0++;ms1=ms1-31;}
	if(ms1>31){ms0++;ms1=ms1-31;}
	if(ms1>31){ms0++;ms1=ms1-31;}
	if(ms1>31){ms0++;ms1=ms1-31;}
	if(ms1>31){ms0++;ms1=ms1-31;}
     db0:	e0 32       	cpi	r30, 0x20	; 32
     db2:	f1 05       	cpc	r31, r1
     db4:	ac f0       	brlt	.+42     	; 0xde0 <_Z3m2siiiPiS_S_+0x1fa>
     db6:	2f 5f       	subi	r18, 0xFF	; 255
     db8:	3f 4f       	sbci	r19, 0xFF	; 255
     dba:	7f 97       	sbiw	r30, 0x1f	; 31
     dbc:	03 c0       	rjmp	.+6      	; 0xdc4 <_Z3m2siiiPiS_S_+0x1de>
	ys1=ym1-ys2;
	*ys=ys1/365;
	*ys=*ys-1299;
	ms1=ys1%365;
	ms0=1;
	if(ms1>31){ms0++;ms1=ms1-31;}
     dbe:	f9 01       	movw	r30, r18
     dc0:	22 e0       	ldi	r18, 0x02	; 2
     dc2:	30 e0       	ldi	r19, 0x00	; 0
	if(ms1>31){ms0++;ms1=ms1-31;}
	if(ms1>31){ms0++;ms1=ms1-31;}
	if(ms1>31){ms0++;ms1=ms1-31;}
	if(ms1>31){ms0++;ms1=ms1-31;}
	if(ms1>31){ms0++;ms1=ms1-31;}
     dc4:	e0 32       	cpi	r30, 0x20	; 32
     dc6:	f1 05       	cpc	r31, r1
     dc8:	5c f0       	brlt	.+22     	; 0xde0 <_Z3m2siiiPiS_S_+0x1fa>
     dca:	2f 5f       	subi	r18, 0xFF	; 255
     dcc:	3f 4f       	sbci	r19, 0xFF	; 255
     dce:	7f 97       	sbiw	r30, 0x1f	; 31
     dd0:	07 c0       	rjmp	.+14     	; 0xde0 <_Z3m2siiiPiS_S_+0x1fa>
	*ys=ys1/365;
	*ys=*ys-1299;
	ms1=ys1%365;
	ms0=1;
	if(ms1>31){ms0++;ms1=ms1-31;}
	if(ms1>31){ms0++;ms1=ms1-31;}
     dd2:	f9 01       	movw	r30, r18
     dd4:	23 e0       	ldi	r18, 0x03	; 3
     dd6:	30 e0       	ldi	r19, 0x00	; 0
     dd8:	03 c0       	rjmp	.+6      	; 0xde0 <_Z3m2siiiPiS_S_+0x1fa>
	if(ms1>31){ms0++;ms1=ms1-31;}
     dda:	f9 01       	movw	r30, r18
     ddc:	24 e0       	ldi	r18, 0x04	; 4
     dde:	30 e0       	ldi	r19, 0x00	; 0
	if(ms1>31){ms0++;ms1=ms1-31;}
	if(ms1>31){ms0++;ms1=ms1-31;}
	if(ms1>31){ms0++;ms1=ms1-31;}
	if(ms1>30){ms0++;ms1=ms1-30;}
     de0:	ef 31       	cpi	r30, 0x1F	; 31
     de2:	f1 05       	cpc	r31, r1
     de4:	f4 f0       	brlt	.+60     	; 0xe22 <_Z3m2siiiPiS_S_+0x23c>
     de6:	af 01       	movw	r20, r30
     de8:	4e 51       	subi	r20, 0x1E	; 30
     dea:	51 09       	sbc	r21, r1
	if(ms1>30){ms0++;ms1=ms1-30;}
     dec:	4f 31       	cpi	r20, 0x1F	; 31
     dee:	51 05       	cpc	r21, r1
     df0:	24 f4       	brge	.+8      	; 0xdfa <_Z3m2siiiPiS_S_+0x214>
	if(ms1>31){ms0++;ms1=ms1-31;}
	if(ms1>31){ms0++;ms1=ms1-31;}
	if(ms1>31){ms0++;ms1=ms1-31;}
	if(ms1>31){ms0++;ms1=ms1-31;}
	if(ms1>31){ms0++;ms1=ms1-31;}
	if(ms1>30){ms0++;ms1=ms1-30;}
     df2:	2f 5f       	subi	r18, 0xFF	; 255
     df4:	3f 4f       	sbci	r19, 0xFF	; 255
     df6:	fa 01       	movw	r30, r20
     df8:	20 c0       	rjmp	.+64     	; 0xe3a <_Z3m2siiiPiS_S_+0x254>
	if(ms1>30){ms0++;ms1=ms1-30;}
     dfa:	b9 01       	movw	r22, r18
     dfc:	6e 5f       	subi	r22, 0xFE	; 254
     dfe:	7f 4f       	sbci	r23, 0xFF	; 255
     e00:	af 01       	movw	r20, r30
     e02:	4c 53       	subi	r20, 0x3C	; 60
     e04:	51 09       	sbc	r21, r1
	if(ms1>30){ms0++;ms1=ms1-30;}
     e06:	4f 31       	cpi	r20, 0x1F	; 31
     e08:	51 05       	cpc	r21, r1
     e0a:	94 f0       	brlt	.+36     	; 0xe30 <_Z3m2siiiPiS_S_+0x24a>
     e0c:	6f 5f       	subi	r22, 0xFF	; 255
     e0e:	7f 4f       	sbci	r23, 0xFF	; 255
     e10:	4e 51       	subi	r20, 0x1E	; 30
     e12:	51 09       	sbc	r21, r1
	if(ms1>30){ms0++;ms1=ms1-30;}
     e14:	4f 31       	cpi	r20, 0x1F	; 31
     e16:	51 05       	cpc	r21, r1
     e18:	74 f0       	brlt	.+28     	; 0xe36 <_Z3m2siiiPiS_S_+0x250>
     e1a:	2c 5f       	subi	r18, 0xFC	; 252
     e1c:	3f 4f       	sbci	r19, 0xFF	; 255
     e1e:	e8 57       	subi	r30, 0x78	; 120
     e20:	f1 09       	sbc	r31, r1
	if(ms1>30){ms0++;ms1=ms1-30;}
     e22:	ef 31       	cpi	r30, 0x1F	; 31
     e24:	f1 05       	cpc	r31, r1
     e26:	4c f0       	brlt	.+18     	; 0xe3a <_Z3m2siiiPiS_S_+0x254>
     e28:	2f 5f       	subi	r18, 0xFF	; 255
     e2a:	3f 4f       	sbci	r19, 0xFF	; 255
     e2c:	7e 97       	sbiw	r30, 0x1e	; 30
     e2e:	05 c0       	rjmp	.+10     	; 0xe3a <_Z3m2siiiPiS_S_+0x254>
	if(ms1>31){ms0++;ms1=ms1-31;}
	if(ms1>31){ms0++;ms1=ms1-31;}
	if(ms1>31){ms0++;ms1=ms1-31;}
	if(ms1>31){ms0++;ms1=ms1-31;}
	if(ms1>30){ms0++;ms1=ms1-30;}
	if(ms1>30){ms0++;ms1=ms1-30;}
     e30:	9b 01       	movw	r18, r22
     e32:	fa 01       	movw	r30, r20
     e34:	02 c0       	rjmp	.+4      	; 0xe3a <_Z3m2siiiPiS_S_+0x254>
	if(ms1>30){ms0++;ms1=ms1-30;}
     e36:	9b 01       	movw	r18, r22
     e38:	fa 01       	movw	r30, r20
	if(ms1>30){ms0++;ms1=ms1-30;}
	if(ms1>30){ms0++;ms1=ms1-30;}
	*ds=ms1;
     e3a:	a9 81       	ldd	r26, Y+1	; 0x01
     e3c:	ba 81       	ldd	r27, Y+2	; 0x02
     e3e:	ed 93       	st	X+, r30
     e40:	fc 93       	st	X, r31
	*ms=ms0;
     e42:	f8 01       	movw	r30, r16
     e44:	31 83       	std	Z+1, r19	; 0x01
     e46:	20 83       	st	Z, r18
	return *ys;
	return *ms;
	return *ds;
}
     e48:	d5 01       	movw	r26, r10
     e4a:	8d 91       	ld	r24, X+
     e4c:	9c 91       	ld	r25, X
     e4e:	0f 90       	pop	r0
     e50:	0f 90       	pop	r0
     e52:	df 91       	pop	r29
     e54:	cf 91       	pop	r28
     e56:	1f 91       	pop	r17
     e58:	0f 91       	pop	r16
     e5a:	ff 90       	pop	r15
     e5c:	ef 90       	pop	r14
     e5e:	df 90       	pop	r13
     e60:	cf 90       	pop	r12
     e62:	bf 90       	pop	r11
     e64:	af 90       	pop	r10
     e66:	9f 90       	pop	r9
     e68:	8f 90       	pop	r8
     e6a:	7f 90       	pop	r7
     e6c:	6f 90       	pop	r6
     e6e:	5f 90       	pop	r5
     e70:	4f 90       	pop	r4
     e72:	3f 90       	pop	r3
     e74:	2f 90       	pop	r2
     e76:	08 95       	ret

00000e78 <_Z10init_timerv>:
	#else
		//round up by default
		__ticks_dc = (uint32_t)(ceil(fabs(__tmp)));
	#endif

	__builtin_avr_delay_cycles(__ticks_dc);
     e78:	2f ef       	ldi	r18, 0xFF	; 255
     e7a:	87 ea       	ldi	r24, 0xA7	; 167
     e7c:	91 e6       	ldi	r25, 0x61	; 97
     e7e:	21 50       	subi	r18, 0x01	; 1
     e80:	80 40       	sbci	r24, 0x00	; 0
     e82:	90 40       	sbci	r25, 0x00	; 0
     e84:	e1 f7       	brne	.-8      	; 0xe7e <_Z10init_timerv+0x6>
     e86:	00 c0       	rjmp	.+0      	; 0xe88 <_Z10init_timerv+0x10>
     e88:	00 00       	nop
	//timer2
	_delay_ms(2000);
	//--------------------------------------------------------------------------
	//timer1
	// set up timer with prescaler = 8 and CTC mode
	TCCR1B |= (1 << WGM12)|(1 << CS11);//|(1 << CS10)
     e8a:	8e b5       	in	r24, 0x2e	; 46
     e8c:	8a 60       	ori	r24, 0x0A	; 10
     e8e:	8e bd       	out	0x2e, r24	; 46
	
	// initialize counter
	TCNT1 = 0;
     e90:	1d bc       	out	0x2d, r1	; 45
     e92:	1c bc       	out	0x2c, r1	; 44
	
	// initialize compare value
	OCR1A = 19999;
     e94:	8f e1       	ldi	r24, 0x1F	; 31
     e96:	9e e4       	ldi	r25, 0x4E	; 78
     e98:	9b bd       	out	0x2b, r25	; 43
     e9a:	8a bd       	out	0x2a, r24	; 42
	
	// enable compare interrupt
	TIMSK |= (1 << OCIE1A);
     e9c:	89 b7       	in	r24, 0x39	; 57
     e9e:	80 61       	ori	r24, 0x10	; 16
     ea0:	89 bf       	out	0x39, r24	; 57
	//--------------------------------------------------------------------------
	//--------------------------------------------------------------------------
	sei();									// Enable global interrupt
     ea2:	78 94       	sei
     ea4:	08 95       	ret

00000ea6 <main>:
	}
}


int main(void)
{	
     ea6:	cf 93       	push	r28
     ea8:	df 93       	push	r29
     eaa:	cd b7       	in	r28, 0x3d	; 61
     eac:	de b7       	in	r29, 0x3e	; 62
     eae:	c4 51       	subi	r28, 0x14	; 20
     eb0:	d1 40       	sbci	r29, 0x01	; 1
     eb2:	0f b6       	in	r0, 0x3f	; 63
     eb4:	f8 94       	cli
     eb6:	de bf       	out	0x3e, r29	; 62
     eb8:	0f be       	out	0x3f, r0	; 63
     eba:	cd bf       	out	0x3d, r28	; 61
	
	DS1307_Init();	
     ebc:	0e 94 57 05 	call	0xaae	; 0xaae <_Z11DS1307_Initv>
	I2C_Init();
     ec0:	0e 94 e9 04 	call	0x9d2	; 0x9d2 <_Z8I2C_Initv>
     ec4:	8f e3       	ldi	r24, 0x3F	; 63
     ec6:	9c e9       	ldi	r25, 0x9C	; 156
     ec8:	01 97       	sbiw	r24, 0x01	; 1
     eca:	f1 f7       	brne	.-4      	; 0xec8 <main+0x22>
     ecc:	00 c0       	rjmp	.+0      	; 0xece <main+0x28>
     ece:	00 00       	nop
	//==================================
	char Temperature1[9];	
	char Humidity1[9];
// 	char Temperature[9] = "22";
// 	char Humidity[9] = "22";
	char roz[9] = "21";
     ed0:	42 e3       	ldi	r20, 0x32	; 50
     ed2:	51 e3       	ldi	r21, 0x31	; 49
     ed4:	60 e0       	ldi	r22, 0x00	; 0
     ed6:	70 e0       	ldi	r23, 0x00	; 0
     ed8:	4a 87       	std	Y+10, r20	; 0x0a
     eda:	5b 87       	std	Y+11, r21	; 0x0b
     edc:	6c 87       	std	Y+12, r22	; 0x0c
     ede:	7d 87       	std	Y+13, r23	; 0x0d
     ee0:	85 e0       	ldi	r24, 0x05	; 5
     ee2:	fe 01       	movw	r30, r28
     ee4:	3e 96       	adiw	r30, 0x0e	; 14
     ee6:	df 01       	movw	r26, r30
     ee8:	28 2f       	mov	r18, r24
     eea:	1d 92       	st	X+, r1
     eec:	2a 95       	dec	r18
     eee:	e9 f7       	brne	.-6      	; 0xeea <main+0x44>
	char motor[9] = "21";
     ef0:	49 83       	std	Y+1, r20	; 0x01
     ef2:	5a 83       	std	Y+2, r21	; 0x02
     ef4:	6b 83       	std	Y+3, r22	; 0x03
     ef6:	7c 83       	std	Y+4, r23	; 0x04
     ef8:	39 97       	sbiw	r30, 0x09	; 9
     efa:	df 01       	movw	r26, r30
     efc:	1d 92       	st	X+, r1
     efe:	8a 95       	dec	r24
     f00:	e9 f7       	brne	.-6      	; 0xefc <main+0x56>
	

	char donogh[8]	 = {0x00,0x00,0x36,0x36,0x00,0x00,0x00,0x00};
     f02:	88 e0       	ldi	r24, 0x08	; 8
     f04:	e7 e4       	ldi	r30, 0x47	; 71
     f06:	f2 e0       	ldi	r31, 0x02	; 2
     f08:	de 01       	movw	r26, r28
     f0a:	a3 5f       	subi	r26, 0xF3	; 243
     f0c:	be 4f       	sbci	r27, 0xFE	; 254
     f0e:	01 90       	ld	r0, Z+
     f10:	0d 92       	st	X+, r0
     f12:	8a 95       	dec	r24
     f14:	e1 f7       	brne	.-8      	; 0xf0e <main+0x68>
	char space[8]	 = {0x00,0x00,0x00,0x00,0x00,0x00,0x00,0x00};
     f16:	fe 01       	movw	r30, r28
     f18:	eb 5f       	subi	r30, 0xFB	; 251
     f1a:	fe 4f       	sbci	r31, 0xFE	; 254
     f1c:	88 e0       	ldi	r24, 0x08	; 8
     f1e:	df 01       	movw	r26, r30
     f20:	1d 92       	st	X+, r1
     f22:	8a 95       	dec	r24
     f24:	e9 f7       	brne	.-6      	; 0xf20 <main+0x7a>
	char xhard[8]	 = {0x00,0x00,0x24,0x24,0x24,0x38,0x00,0x00};
     f26:	88 e0       	ldi	r24, 0x08	; 8
     f28:	ef e4       	ldi	r30, 0x4F	; 79
     f2a:	f2 e0       	ldi	r31, 0x02	; 2
     f2c:	de 01       	movw	r26, r28
     f2e:	a3 50       	subi	r26, 0x03	; 3
     f30:	bf 4f       	sbci	r27, 0xFF	; 255
     f32:	01 90       	ld	r0, Z+
     f34:	0d 92       	st	X+, r0
     f36:	8a 95       	dec	r24
     f38:	e1 f7       	brne	.-8      	; 0xf32 <main+0x8c>
	char xharm[8]	 = {0x20,0x20,0x20,0x20,0x30,0x48,0x48,0x30};	  
     f3a:	88 e0       	ldi	r24, 0x08	; 8
     f3c:	e7 e5       	ldi	r30, 0x57	; 87
     f3e:	f2 e0       	ldi	r31, 0x02	; 2
     f40:	de 01       	movw	r26, r28
     f42:	ab 50       	subi	r26, 0x0B	; 11
     f44:	bf 4f       	sbci	r27, 0xFF	; 255
     f46:	01 90       	ld	r0, Z+
     f48:	0d 92       	st	X+, r0
     f4a:	8a 95       	dec	r24
     f4c:	e1 f7       	brne	.-8      	; 0xf46 <main+0xa0>
	char xhara[8]	 = {0x00,0x1E,0x20,0x20,0x20,0x20,0x20,0x20};
     f4e:	88 e0       	ldi	r24, 0x08	; 8
     f50:	ef e5       	ldi	r30, 0x5F	; 95
     f52:	f2 e0       	ldi	r31, 0x02	; 2
     f54:	de 01       	movw	r26, r28
     f56:	a3 51       	subi	r26, 0x13	; 19
     f58:	bf 4f       	sbci	r27, 0xFF	; 255
     f5a:	01 90       	ld	r0, Z+
     f5c:	0d 92       	st	X+, r0
     f5e:	8a 95       	dec	r24
     f60:	e1 f7       	brne	.-8      	; 0xf5a <main+0xb4>
	char xharr[8]	 = {0x00,0x80,0x80,0x40,0x30,0x00,0x00,0x00};
     f62:	88 e0       	ldi	r24, 0x08	; 8
     f64:	e7 e6       	ldi	r30, 0x67	; 103
     f66:	f2 e0       	ldi	r31, 0x02	; 2
     f68:	de 01       	movw	r26, r28
     f6a:	ab 51       	subi	r26, 0x1B	; 27
     f6c:	bf 4f       	sbci	r27, 0xFF	; 255
     f6e:	01 90       	ld	r0, Z+
     f70:	0d 92       	st	X+, r0
     f72:	8a 95       	dec	r24
     f74:	e1 f7       	brne	.-8      	; 0xf6e <main+0xc8>
	char xhart[8]	 = {0x20,0x20,0x3E,0x30,0x28,0x28,0x18,0x00};	
     f76:	88 e0       	ldi	r24, 0x08	; 8
     f78:	ef e6       	ldi	r30, 0x6F	; 111
     f7a:	f2 e0       	ldi	r31, 0x02	; 2
     f7c:	de 01       	movw	r26, r28
     f7e:	a3 52       	subi	r26, 0x23	; 35
     f80:	bf 4f       	sbci	r27, 0xFF	; 255
     f82:	01 90       	ld	r0, Z+
     f84:	0d 92       	st	X+, r0
     f86:	8a 95       	dec	r24
     f88:	e1 f7       	brne	.-8      	; 0xf82 <main+0xdc>
	char xharo[8]	 = {0x00,0xB0,0xA8,0x78,0x20,0x20,0x20,0x20};
     f8a:	88 e0       	ldi	r24, 0x08	; 8
     f8c:	e7 e7       	ldi	r30, 0x77	; 119
     f8e:	f2 e0       	ldi	r31, 0x02	; 2
     f90:	de 01       	movw	r26, r28
     f92:	ab 52       	subi	r26, 0x2B	; 43
     f94:	bf 4f       	sbci	r27, 0xFF	; 255
     f96:	01 90       	ld	r0, Z+
     f98:	0d 92       	st	X+, r0
     f9a:	8a 95       	dec	r24
     f9c:	e1 f7       	brne	.-8      	; 0xf96 <main+0xf0>
	char xharb[8]	 = {0x20,0x20,0x20,0x20,0xA0,0x20,0x28,0x30};
     f9e:	88 e0       	ldi	r24, 0x08	; 8
     fa0:	ef e7       	ldi	r30, 0x7F	; 127
     fa2:	f2 e0       	ldi	r31, 0x02	; 2
     fa4:	de 01       	movw	r26, r28
     fa6:	a3 53       	subi	r26, 0x33	; 51
     fa8:	bf 4f       	sbci	r27, 0xFF	; 255
     faa:	01 90       	ld	r0, Z+
     fac:	0d 92       	st	X+, r0
     fae:	8a 95       	dec	r24
     fb0:	e1 f7       	brne	.-8      	; 0xfaa <main+0x104>
	char xhartt[8]	 = {0x00,0x30,0x28,0x22,0x20,0x22,0x28,0x30};	
     fb2:	88 e0       	ldi	r24, 0x08	; 8
     fb4:	e7 e8       	ldi	r30, 0x87	; 135
     fb6:	f2 e0       	ldi	r31, 0x02	; 2
     fb8:	de 01       	movw	r26, r28
     fba:	ab 53       	subi	r26, 0x3B	; 59
     fbc:	bf 4f       	sbci	r27, 0xFF	; 255
     fbe:	01 90       	ld	r0, Z+
     fc0:	0d 92       	st	X+, r0
     fc2:	8a 95       	dec	r24
     fc4:	e1 f7       	brne	.-8      	; 0xfbe <main+0x118>
	char xharn[8]	 = {0x20,0x20,0x20,0x20,0x22,0x20,0x18,0x00};
     fc6:	88 e0       	ldi	r24, 0x08	; 8
     fc8:	ef e8       	ldi	r30, 0x8F	; 143
     fca:	f2 e0       	ldi	r31, 0x02	; 2
     fcc:	de 01       	movw	r26, r28
     fce:	a3 54       	subi	r26, 0x43	; 67
     fd0:	bf 4f       	sbci	r27, 0xFF	; 255
     fd2:	01 90       	ld	r0, Z+
     fd4:	0d 92       	st	X+, r0
     fd6:	8a 95       	dec	r24
     fd8:	e1 f7       	brne	.-8      	; 0xfd2 <main+0x12c>
	char xhare[8]	 = {0x00,0x40,0xA0,0xB0,0x28,0x28,0x20,0x20};
     fda:	88 e0       	ldi	r24, 0x08	; 8
     fdc:	e7 e9       	ldi	r30, 0x97	; 151
     fde:	f2 e0       	ldi	r31, 0x02	; 2
     fe0:	de 01       	movw	r26, r28
     fe2:	ab 54       	subi	r26, 0x4B	; 75
     fe4:	bf 4f       	sbci	r27, 0xFF	; 255
     fe6:	01 90       	ld	r0, Z+
     fe8:	0d 92       	st	X+, r0
     fea:	8a 95       	dec	r24
     fec:	e1 f7       	brne	.-8      	; 0xfe6 <main+0x140>
	char xhargh[8]	 = {0x00,0x40,0xA0,0xB0,0x28,0x2A,0x20,0x20};	
     fee:	88 e0       	ldi	r24, 0x08	; 8
     ff0:	ef e9       	ldi	r30, 0x9F	; 159
     ff2:	f2 e0       	ldi	r31, 0x02	; 2
     ff4:	de 01       	movw	r26, r28
     ff6:	a3 55       	subi	r26, 0x53	; 83
     ff8:	bf 4f       	sbci	r27, 0xFF	; 255
     ffa:	01 90       	ld	r0, Z+
     ffc:	0d 92       	st	X+, r0
     ffe:	8a 95       	dec	r24
    1000:	e1 f7       	brne	.-8      	; 0xffa <main+0x154>
	char xharrr[8]	 = {0x00,0x80,0x80,0x40,0x30,0x20,0x20,0x20};	
    1002:	88 e0       	ldi	r24, 0x08	; 8
    1004:	e7 ea       	ldi	r30, 0xA7	; 167
    1006:	f2 e0       	ldi	r31, 0x02	; 2
    1008:	de 01       	movw	r26, r28
    100a:	ab 55       	subi	r26, 0x5B	; 91
    100c:	bf 4f       	sbci	r27, 0xFF	; 255
    100e:	01 90       	ld	r0, Z+
    1010:	0d 92       	st	X+, r0
    1012:	8a 95       	dec	r24
    1014:	e1 f7       	brne	.-8      	; 0x100e <main+0x168>
	char xharh[8]	 = {0x00,0x00,0x30,0x28,0x28,0x30,0x00,0x00};	
    1016:	88 e0       	ldi	r24, 0x08	; 8
    1018:	ef ea       	ldi	r30, 0xAF	; 175
    101a:	f2 e0       	ldi	r31, 0x02	; 2
    101c:	de 01       	movw	r26, r28
    101e:	a3 56       	subi	r26, 0x63	; 99
    1020:	bf 4f       	sbci	r27, 0xFF	; 255
    1022:	01 90       	ld	r0, Z+
    1024:	0d 92       	st	X+, r0
    1026:	8a 95       	dec	r24
    1028:	e1 f7       	brne	.-8      	; 0x1022 <main+0x17c>
	char xharhh[8]   = {0x00,0x18,0x14,0x14,0x18,0x20,0x20,0x20};	
    102a:	88 e0       	ldi	r24, 0x08	; 8
    102c:	e7 eb       	ldi	r30, 0xB7	; 183
    102e:	f2 e0       	ldi	r31, 0x02	; 2
    1030:	de 01       	movw	r26, r28
    1032:	ab 56       	subi	r26, 0x6B	; 107
    1034:	bf 4f       	sbci	r27, 0xFF	; 255
    1036:	01 90       	ld	r0, Z+
    1038:	0d 92       	st	X+, r0
    103a:	8a 95       	dec	r24
    103c:	e1 f7       	brne	.-8      	; 0x1036 <main+0x190>
	char xharh_[8]   = {0x20,0x20,0x20,0x30,0x28,0x3A,0x2C,0x18};	
    103e:	88 e0       	ldi	r24, 0x08	; 8
    1040:	ef eb       	ldi	r30, 0xBF	; 191
    1042:	f2 e0       	ldi	r31, 0x02	; 2
    1044:	de 01       	movw	r26, r28
    1046:	a3 57       	subi	r26, 0x73	; 115
    1048:	bf 4f       	sbci	r27, 0xFF	; 255
    104a:	01 90       	ld	r0, Z+
    104c:	0d 92       	st	X+, r0
    104e:	8a 95       	dec	r24
    1050:	e1 f7       	brne	.-8      	; 0x104a <main+0x1a4>
	char xhard_[8]   = {0x00,0x00,0x24,0x24,0x24,0x38,0x20,0x20};	
    1052:	88 e0       	ldi	r24, 0x08	; 8
    1054:	e7 ec       	ldi	r30, 0xC7	; 199
    1056:	f2 e0       	ldi	r31, 0x02	; 2
    1058:	de 01       	movw	r26, r28
    105a:	ab 57       	subi	r26, 0x7B	; 123
    105c:	bf 4f       	sbci	r27, 0xFF	; 255
    105e:	01 90       	ld	r0, Z+
    1060:	0d 92       	st	X+, r0
    1062:	8a 95       	dec	r24
    1064:	e1 f7       	brne	.-8      	; 0x105e <main+0x1b8>
	char xharch[8]   = {0x20,0x20,0x28,0x28,0x68,0xB0,0x60,0x20};
    1066:	88 e0       	ldi	r24, 0x08	; 8
    1068:	ef ec       	ldi	r30, 0xCF	; 207
    106a:	f2 e0       	ldi	r31, 0x02	; 2
    106c:	de 01       	movw	r26, r28
    106e:	a3 58       	subi	r26, 0x83	; 131
    1070:	bf 4f       	sbci	r27, 0xFF	; 255
    1072:	01 90       	ld	r0, Z+
    1074:	0d 92       	st	X+, r0
    1076:	8a 95       	dec	r24
    1078:	e1 f7       	brne	.-8      	; 0x1072 <main+0x1cc>
	char xhargh_[8]  = {0x20,0x20,0x20,0x20,0x30,0x2A,0x28,0x32};
    107a:	88 e0       	ldi	r24, 0x08	; 8
    107c:	e7 ed       	ldi	r30, 0xD7	; 215
    107e:	f2 e0       	ldi	r31, 0x02	; 2
    1080:	de 01       	movw	r26, r28
    1082:	ab 58       	subi	r26, 0x8B	; 139
    1084:	bf 4f       	sbci	r27, 0xFF	; 255
    1086:	01 90       	ld	r0, Z+
    1088:	0d 92       	st	X+, r0
    108a:	8a 95       	dec	r24
    108c:	e1 f7       	brne	.-8      	; 0x1086 <main+0x1e0>
	char xhart_[8]   = {0x20,0x20,0x20,0x22,0x20,0x22,0x28,0x30};
    108e:	88 e0       	ldi	r24, 0x08	; 8
    1090:	ef ed       	ldi	r30, 0xDF	; 223
    1092:	f2 e0       	ldi	r31, 0x02	; 2
    1094:	de 01       	movw	r26, r28
    1096:	a3 59       	subi	r26, 0x93	; 147
    1098:	bf 4f       	sbci	r27, 0xFF	; 255
    109a:	01 90       	ld	r0, Z+
    109c:	0d 92       	st	X+, r0
    109e:	8a 95       	dec	r24
    10a0:	e1 f7       	brne	.-8      	; 0x109a <main+0x1f4>
	char xharl[8]    = {0x20,0x20,0x20,0x20,0x1F,0x20,0x20,0x20};
    10a2:	88 e0       	ldi	r24, 0x08	; 8
    10a4:	e7 ee       	ldi	r30, 0xE7	; 231
    10a6:	f2 e0       	ldi	r31, 0x02	; 2
    10a8:	de 01       	movw	r26, r28
    10aa:	ab 59       	subi	r26, 0x9B	; 155
    10ac:	bf 4f       	sbci	r27, 0xFF	; 255
    10ae:	01 90       	ld	r0, Z+
    10b0:	0d 92       	st	X+, r0
    10b2:	8a 95       	dec	r24
    10b4:	e1 f7       	brne	.-8      	; 0x10ae <main+0x208>
	char xharn__[8]  = {0x00,0x00,0x60,0x80,0x88,0x80,0x60,0x00};	
    10b6:	88 e0       	ldi	r24, 0x08	; 8
    10b8:	ef ee       	ldi	r30, 0xEF	; 239
    10ba:	f2 e0       	ldi	r31, 0x02	; 2
    10bc:	de 01       	movw	r26, r28
    10be:	a3 5a       	subi	r26, 0xA3	; 163
    10c0:	bf 4f       	sbci	r27, 0xFF	; 255
    10c2:	01 90       	ld	r0, Z+
    10c4:	0d 92       	st	X+, r0
    10c6:	8a 95       	dec	r24
    10c8:	e1 f7       	brne	.-8      	; 0x10c2 <main+0x21c>
	char xhark_[8]	 = {0x22,0x25,0x25,0x25,0x25,0x25,0x25,0x19};
    10ca:	88 e0       	ldi	r24, 0x08	; 8
    10cc:	e7 ef       	ldi	r30, 0xF7	; 247
    10ce:	f2 e0       	ldi	r31, 0x02	; 2
    10d0:	de 01       	movw	r26, r28
    10d2:	ab 5a       	subi	r26, 0xAB	; 171
    10d4:	bf 4f       	sbci	r27, 0xFF	; 255
    10d6:	01 90       	ld	r0, Z+
    10d8:	0d 92       	st	X+, r0
    10da:	8a 95       	dec	r24
    10dc:	e1 f7       	brne	.-8      	; 0x10d6 <main+0x230>
	char xhar_k[8]	 = {0x30,0x28,0x2C,0x2A,0x20,0x3F,0x20,0x20};
    10de:	88 e0       	ldi	r24, 0x08	; 8
    10e0:	ef ef       	ldi	r30, 0xFF	; 255
    10e2:	f2 e0       	ldi	r31, 0x02	; 2
    10e4:	de 01       	movw	r26, r28
    10e6:	a3 5b       	subi	r26, 0xB3	; 179
    10e8:	bf 4f       	sbci	r27, 0xFF	; 255
    10ea:	01 90       	ld	r0, Z+
    10ec:	0d 92       	st	X+, r0
    10ee:	8a 95       	dec	r24
    10f0:	e1 f7       	brne	.-8      	; 0x10ea <main+0x244>
	char xhar_b_[8]	 = {0x20,0x20,0x20,0x20,0xB0,0x20,0x20,0x20};
    10f2:	88 e0       	ldi	r24, 0x08	; 8
    10f4:	e7 e0       	ldi	r30, 0x07	; 7
    10f6:	f3 e0       	ldi	r31, 0x03	; 3
    10f8:	de 01       	movw	r26, r28
    10fa:	ab 5b       	subi	r26, 0xBB	; 187
    10fc:	bf 4f       	sbci	r27, 0xFF	; 255
    10fe:	01 90       	ld	r0, Z+
    1100:	0d 92       	st	X+, r0
    1102:	8a 95       	dec	r24
    1104:	e1 f7       	brne	.-8      	; 0x10fe <main+0x258>
	char xharsh_[8]	 = {0x20,0x20,0x20,0x38,0x22,0x39,0x22,0x18};
    1106:	88 e0       	ldi	r24, 0x08	; 8
    1108:	ef e0       	ldi	r30, 0x0F	; 15
    110a:	f3 e0       	ldi	r31, 0x03	; 3
    110c:	de 01       	movw	r26, r28
    110e:	dd 96       	adiw	r26, 0x3d	; 61
    1110:	01 90       	ld	r0, Z+
    1112:	0d 92       	st	X+, r0
    1114:	8a 95       	dec	r24
    1116:	e1 f7       	brne	.-8      	; 0x1110 <main+0x26a>
	char xhar_t_[8]	 = {0x20,0x20,0x20,0x22,0x30,0x22,0x20,0x20};
    1118:	88 e0       	ldi	r24, 0x08	; 8
    111a:	e7 e1       	ldi	r30, 0x17	; 23
    111c:	f3 e0       	ldi	r31, 0x03	; 3
    111e:	de 01       	movw	r26, r28
    1120:	d5 96       	adiw	r26, 0x35	; 53
    1122:	01 90       	ld	r0, Z+
    1124:	0d 92       	st	X+, r0
    1126:	8a 95       	dec	r24
    1128:	e1 f7       	brne	.-8      	; 0x1122 <main+0x27c>
	char felesh[8]   = {0x00,0x1C,0x1C,0x1C,0x7F,0x3E,0x1C,0x08};
    112a:	88 e0       	ldi	r24, 0x08	; 8
    112c:	ef e1       	ldi	r30, 0x1F	; 31
    112e:	f3 e0       	ldi	r31, 0x03	; 3
    1130:	de 01       	movw	r26, r28
    1132:	9d 96       	adiw	r26, 0x2d	; 45
    1134:	01 90       	ld	r0, Z+
    1136:	0d 92       	st	X+, r0
    1138:	8a 95       	dec	r24
    113a:	e1 f7       	brne	.-8      	; 0x1134 <main+0x28e>
														
	glcd_int();
    113c:	0e 94 94 04 	call	0x928	; 0x928 <_Z8glcd_intv>
	init_timer();
    1140:	0e 94 3c 07 	call	0xe78	; 0xe78 <_Z10init_timerv>
// 			glcd_SetCursor(0,15);
// 			glcd_writeChar(xharO);
// 			glcd_SetCursor(0,21);
// 			glcd_writeChar(xharJ);
	/*DDRB |=(1<<PB2)|(1<<PB3)|(1<<PB5);*/
	DDRD |=(1<<PD7);
    1144:	8f 9a       	sbi	0x11, 7	; 17
	DDRD &=~((1<<PD4)|(1<<PD5)|(1<<PD6));//|(1<<PD7)
    1146:	81 b3       	in	r24, 0x11	; 17
    1148:	8f 78       	andi	r24, 0x8F	; 143
    114a:	81 bb       	out	0x11, r24	; 17
	DDRC |=((1<<PC2)|(1<<PC3)|(1<<PC4)|(1<<PC5)|(1<<PC6)|(1<<PC7));
    114c:	84 b3       	in	r24, 0x14	; 20
    114e:	8c 6f       	ori	r24, 0xFC	; 252
    1150:	84 bb       	out	0x14, r24	; 20
    1152:	bf ef       	ldi	r27, 0xFF	; 255
    1154:	2b e7       	ldi	r18, 0x7B	; 123
    1156:	32 e9       	ldi	r19, 0x92	; 146
    1158:	b1 50       	subi	r27, 0x01	; 1
    115a:	20 40       	sbci	r18, 0x00	; 0
    115c:	30 40       	sbci	r19, 0x00	; 0
    115e:	e1 f7       	brne	.-8      	; 0x1158 <main+0x2b2>
    1160:	00 c0       	rjmp	.+0      	; 0x1162 <main+0x2bc>
    1162:	00 00       	nop
	//PORTB |= (1 << PINB4);
// 	DS1307_SetTime(16, 53, 00, 1, 0);
// 	DS1307_SetDate(1, 17, 12, 2019);
	//glcd_writeImg(SYMS3_BMP);
	_delay_ms (3000);
	glcd_clear();
    1164:	0e 94 c4 04 	call	0x988	; 0x988 <_Z10glcd_clearv>
	//d=50;
    while (1) 
    {	
		        d++;
    1168:	80 91 60 00 	lds	r24, 0x0060	; 0x800060 <__data_start>
    116c:	90 91 61 00 	lds	r25, 0x0061	; 0x800061 <__data_start+0x1>
    1170:	01 96       	adiw	r24, 0x01	; 1
		        if(d==300)d=100;
    1172:	8c 32       	cpi	r24, 0x2C	; 44
    1174:	a1 e0       	ldi	r26, 0x01	; 1
    1176:	9a 07       	cpc	r25, r26
    1178:	29 f0       	breq	.+10     	; 0x1184 <main+0x2de>
	_delay_ms (3000);
	glcd_clear();
	//d=50;
    while (1) 
    {	
		        d++;
    117a:	90 93 61 00 	sts	0x0061, r25	; 0x800061 <__data_start+0x1>
    117e:	80 93 60 00 	sts	0x0060, r24	; 0x800060 <__data_start>
    1182:	06 c0       	rjmp	.+12     	; 0x1190 <main+0x2ea>
		        if(d==300)d=100;
    1184:	84 e6       	ldi	r24, 0x64	; 100
    1186:	90 e0       	ldi	r25, 0x00	; 0
    1188:	90 93 61 00 	sts	0x0061, r25	; 0x800061 <__data_start+0x1>
    118c:	80 93 60 00 	sts	0x0060, r24	; 0x800060 <__data_start>
    1190:	bf ef       	ldi	r27, 0xFF	; 255
    1192:	2d ee       	ldi	r18, 0xED	; 237
    1194:	32 e0       	ldi	r19, 0x02	; 2
    1196:	b1 50       	subi	r27, 0x01	; 1
    1198:	20 40       	sbci	r18, 0x00	; 0
    119a:	30 40       	sbci	r19, 0x00	; 0
    119c:	e1 f7       	brne	.-8      	; 0x1196 <main+0x2f0>
    119e:	00 c0       	rjmp	.+0      	; 0x11a0 <main+0x2fa>
    11a0:	00 00       	nop
		        _delay_ms(60);
		DS1307_GetTime(&Hour, &Minute, &Second, &am_pm, hr_format);
    11a2:	00 91 5a 03 	lds	r16, 0x035A	; 0x80035a <hr_format>
    11a6:	2b e5       	ldi	r18, 0x5B	; 91
    11a8:	33 e0       	ldi	r19, 0x03	; 3
    11aa:	4c e5       	ldi	r20, 0x5C	; 92
    11ac:	53 e0       	ldi	r21, 0x03	; 3
    11ae:	6d e5       	ldi	r22, 0x5D	; 93
    11b0:	73 e0       	ldi	r23, 0x03	; 3
    11b2:	8e e5       	ldi	r24, 0x5E	; 94
    11b4:	93 e0       	ldi	r25, 0x03	; 3
    11b6:	0e 94 68 05 	call	0xad0	; 0xad0 <_Z14DS1307_GetTimePhS_S_S_h>
		DS1307_GetDate(&DayOfWeek, &Day, &Mount, &Year);
    11ba:	22 e6       	ldi	r18, 0x62	; 98
    11bc:	33 e0       	ldi	r19, 0x03	; 3
    11be:	41 e6       	ldi	r20, 0x61	; 97
    11c0:	53 e0       	ldi	r21, 0x03	; 3
    11c2:	60 e6       	ldi	r22, 0x60	; 96
    11c4:	73 e0       	ldi	r23, 0x03	; 3
    11c6:	8f e5       	ldi	r24, 0x5F	; 95
    11c8:	93 e0       	ldi	r25, 0x03	; 3
    11ca:	0e 94 a6 05 	call	0xb4c	; 0xb4c <_Z14DS1307_GetDatePhS_S_Pj>

		m2s(Year,Mount,Day,&ys,&ms,&ds);
    11ce:	40 91 60 03 	lds	r20, 0x0360	; 0x800360 <Day>
    11d2:	50 e0       	ldi	r21, 0x00	; 0
    11d4:	60 91 61 03 	lds	r22, 0x0361	; 0x800361 <Mount>
    11d8:	70 e0       	ldi	r23, 0x00	; 0
    11da:	0f 2e       	mov	r0, r31
    11dc:	f4 e5       	ldi	r31, 0x54	; 84
    11de:	ef 2e       	mov	r14, r31
    11e0:	f3 e0       	ldi	r31, 0x03	; 3
    11e2:	ff 2e       	mov	r15, r31
    11e4:	f0 2d       	mov	r31, r0
    11e6:	06 e5       	ldi	r16, 0x56	; 86
    11e8:	13 e0       	ldi	r17, 0x03	; 3
    11ea:	28 e5       	ldi	r18, 0x58	; 88
    11ec:	33 e0       	ldi	r19, 0x03	; 3
    11ee:	80 91 62 03 	lds	r24, 0x0362	; 0x800362 <Year>
    11f2:	90 91 63 03 	lds	r25, 0x0363	; 0x800363 <Year+0x1>
    11f6:	0e 94 f3 05 	call	0xbe6	; 0xbe6 <_Z3m2siiiPiS_S_>
		sht_data data;
		data = sht_sense();
    11fa:	0e 94 f3 01 	call	0x3e6	; 0x3e6 <_Z9sht_sensev>
    11fe:	2d a3       	std	Y+37, r18	; 0x25
    1200:	3e a3       	std	Y+38, r19	; 0x26
    1202:	4f a3       	std	Y+39, r20	; 0x27
    1204:	58 a7       	std	Y+40, r21	; 0x28
    1206:	69 a7       	std	Y+41, r22	; 0x29
    1208:	7a a7       	std	Y+42, r23	; 0x2a
    120a:	8b a7       	std	Y+43, r24	; 0x2b
    120c:	9c a7       	std	Y+44, r25	; 0x2c
		
 		dtostrf((double)data._humidity+hum_, 5, 3, Humidity1);
    120e:	20 91 48 03 	lds	r18, 0x0348	; 0x800348 <hum_>
    1212:	30 91 49 03 	lds	r19, 0x0349	; 0x800349 <hum_+0x1>
    1216:	40 91 4a 03 	lds	r20, 0x034A	; 0x80034a <hum_+0x2>
    121a:	50 91 4b 03 	lds	r21, 0x034B	; 0x80034b <hum_+0x3>
    121e:	69 a5       	ldd	r22, Y+41	; 0x29
    1220:	7a a5       	ldd	r23, Y+42	; 0x2a
    1222:	8b a5       	ldd	r24, Y+43	; 0x2b
    1224:	9c a5       	ldd	r25, Y+44	; 0x2c
    1226:	0e 94 77 0d 	call	0x1aee	; 0x1aee <__addsf3>
    122a:	8e 01       	movw	r16, r28
    122c:	0d 5e       	subi	r16, 0xED	; 237
    122e:	1f 4f       	sbci	r17, 0xFF	; 255
    1230:	23 e0       	ldi	r18, 0x03	; 3
    1232:	45 e0       	ldi	r20, 0x05	; 5
    1234:	0e 94 1a 0f 	call	0x1e34	; 0x1e34 <dtostrf>
 		dtostrf((double)data._temperature+temp_, 5, 3, Temperature1);
    1238:	20 91 4c 03 	lds	r18, 0x034C	; 0x80034c <temp_>
    123c:	30 91 4d 03 	lds	r19, 0x034D	; 0x80034d <temp_+0x1>
    1240:	40 91 4e 03 	lds	r20, 0x034E	; 0x80034e <temp_+0x2>
    1244:	50 91 4f 03 	lds	r21, 0x034F	; 0x80034f <temp_+0x3>
    1248:	6d a1       	ldd	r22, Y+37	; 0x25
    124a:	7e a1       	ldd	r23, Y+38	; 0x26
    124c:	8f a1       	ldd	r24, Y+39	; 0x27
    124e:	98 a5       	ldd	r25, Y+40	; 0x28
    1250:	0e 94 77 0d 	call	0x1aee	; 0x1aee <__addsf3>
    1254:	07 5f       	subi	r16, 0xF7	; 247
    1256:	1f 4f       	sbci	r17, 0xFF	; 255
    1258:	23 e0       	ldi	r18, 0x03	; 3
    125a:	45 e0       	ldi	r20, 0x05	; 5
    125c:	0e 94 1a 0f 	call	0x1e34	; 0x1e34 <dtostrf>

		sprintf(StrBuff, "%02u:%02u:%02u", Hour, Minute, Second);
    1260:	80 91 5c 03 	lds	r24, 0x035C	; 0x80035c <Second>
    1264:	1f 92       	push	r1
    1266:	8f 93       	push	r24
    1268:	80 91 5d 03 	lds	r24, 0x035D	; 0x80035d <Minute>
    126c:	1f 92       	push	r1
    126e:	8f 93       	push	r24
    1270:	80 91 5e 03 	lds	r24, 0x035E	; 0x80035e <Hour>
    1274:	1f 92       	push	r1
    1276:	8f 93       	push	r24
    1278:	87 e2       	ldi	r24, 0x27	; 39
    127a:	93 e0       	ldi	r25, 0x03	; 3
    127c:	9f 93       	push	r25
    127e:	8f 93       	push	r24
    1280:	04 e6       	ldi	r16, 0x64	; 100
    1282:	13 e0       	ldi	r17, 0x03	; 3
    1284:	1f 93       	push	r17
    1286:	0f 93       	push	r16
    1288:	0e 94 3a 0f 	call	0x1e74	; 0x1e74 <sprintf>
		glcd_writeStr(0, 2, 0,StrBuff);//
    128c:	98 01       	movw	r18, r16
    128e:	40 e0       	ldi	r20, 0x00	; 0
    1290:	62 e0       	ldi	r22, 0x02	; 2
    1292:	80 e0       	ldi	r24, 0x00	; 0
    1294:	0e 94 4d 04 	call	0x89a	; 0x89a <_Z13glcd_writeStrcccPc>
/*		sprintf(StrBuff, "%02u/%02u/%02u",  Year, Mount, Day);*/
		sprintf(StrBuff, "%02u/%02u/%02u",  ys-2000, ms, ds);
    1298:	80 91 55 03 	lds	r24, 0x0355	; 0x800355 <ds+0x1>
    129c:	8f 93       	push	r24
    129e:	80 91 54 03 	lds	r24, 0x0354	; 0x800354 <ds>
    12a2:	8f 93       	push	r24
    12a4:	80 91 57 03 	lds	r24, 0x0357	; 0x800357 <ms+0x1>
    12a8:	8f 93       	push	r24
    12aa:	80 91 56 03 	lds	r24, 0x0356	; 0x800356 <ms>
    12ae:	8f 93       	push	r24
    12b0:	80 91 58 03 	lds	r24, 0x0358	; 0x800358 <ys>
    12b4:	90 91 59 03 	lds	r25, 0x0359	; 0x800359 <ys+0x1>
    12b8:	80 5d       	subi	r24, 0xD0	; 208
    12ba:	97 40       	sbci	r25, 0x07	; 7
    12bc:	9f 93       	push	r25
    12be:	8f 93       	push	r24
    12c0:	86 e3       	ldi	r24, 0x36	; 54
    12c2:	93 e0       	ldi	r25, 0x03	; 3
    12c4:	9f 93       	push	r25
    12c6:	8f 93       	push	r24
    12c8:	1f 93       	push	r17
    12ca:	0f 93       	push	r16
    12cc:	0e 94 3a 0f 	call	0x1e74	; 0x1e74 <sprintf>
		glcd_writeStr(0, 2, 1,StrBuff);//
    12d0:	98 01       	movw	r18, r16
    12d2:	41 e0       	ldi	r20, 0x01	; 1
    12d4:	62 e0       	ldi	r22, 0x02	; 2
    12d6:	80 e0       	ldi	r24, 0x00	; 0
    12d8:	0e 94 4d 04 	call	0x89a	; 0x89a <_Z13glcd_writeStrcccPc>
		glcd_writeStr(0, 0, 0,Temperature1);
    12dc:	9e 01       	movw	r18, r28
    12de:	24 5e       	subi	r18, 0xE4	; 228
    12e0:	3f 4f       	sbci	r19, 0xFF	; 255
    12e2:	40 e0       	ldi	r20, 0x00	; 0
    12e4:	60 e0       	ldi	r22, 0x00	; 0
    12e6:	80 e0       	ldi	r24, 0x00	; 0
    12e8:	0e 94 4d 04 	call	0x89a	; 0x89a <_Z13glcd_writeStrcccPc>
		glcd_writeStr(0, 1, 0,Humidity1);
    12ec:	9e 01       	movw	r18, r28
    12ee:	2d 5e       	subi	r18, 0xED	; 237
    12f0:	3f 4f       	sbci	r19, 0xFF	; 255
    12f2:	40 e0       	ldi	r20, 0x00	; 0
    12f4:	61 e0       	ldi	r22, 0x01	; 1
    12f6:	80 e0       	ldi	r24, 0x00	; 0
    12f8:	0e 94 4d 04 	call	0x89a	; 0x89a <_Z13glcd_writeStrcccPc>
		
		dtostrf(hum, 3, 1, StrBuff);
    12fc:	60 91 62 00 	lds	r22, 0x0062	; 0x800062 <hum>
    1300:	70 91 63 00 	lds	r23, 0x0063	; 0x800063 <hum+0x1>
    1304:	80 91 64 00 	lds	r24, 0x0064	; 0x800064 <hum+0x2>
    1308:	90 91 65 00 	lds	r25, 0x0065	; 0x800065 <hum+0x3>
    130c:	21 e0       	ldi	r18, 0x01	; 1
    130e:	43 e0       	ldi	r20, 0x03	; 3
    1310:	0e 94 1a 0f 	call	0x1e34	; 0x1e34 <dtostrf>
		glcd_writeStr(0, 6, 0,StrBuff);//___________________________________________
    1314:	98 01       	movw	r18, r16
    1316:	40 e0       	ldi	r20, 0x00	; 0
    1318:	66 e0       	ldi	r22, 0x06	; 6
    131a:	80 e0       	ldi	r24, 0x00	; 0
    131c:	0e 94 4d 04 	call	0x89a	; 0x89a <_Z13glcd_writeStrcccPc>
		dtostrf(temp, 3, 1, StrBuff);		
    1320:	60 91 66 00 	lds	r22, 0x0066	; 0x800066 <temp>
    1324:	70 91 67 00 	lds	r23, 0x0067	; 0x800067 <temp+0x1>
    1328:	80 91 68 00 	lds	r24, 0x0068	; 0x800068 <temp+0x2>
    132c:	90 91 69 00 	lds	r25, 0x0069	; 0x800069 <temp+0x3>
    1330:	21 e0       	ldi	r18, 0x01	; 1
    1332:	43 e0       	ldi	r20, 0x03	; 3
    1334:	0e 94 1a 0f 	call	0x1e34	; 0x1e34 <dtostrf>
		glcd_writeStr(0, 5, 0,StrBuff);//___________________________________________
    1338:	98 01       	movw	r18, r16
    133a:	40 e0       	ldi	r20, 0x00	; 0
    133c:	65 e0       	ldi	r22, 0x05	; 5
    133e:	80 e0       	ldi	r24, 0x00	; 0
    1340:	0e 94 4d 04 	call	0x89a	; 0x89a <_Z13glcd_writeStrcccPc>
		

		glcd_writeStr(0, 3, 0,roz);
    1344:	9e 01       	movw	r18, r28
    1346:	26 5f       	subi	r18, 0xF6	; 246
    1348:	3f 4f       	sbci	r19, 0xFF	; 255
    134a:	40 e0       	ldi	r20, 0x00	; 0
    134c:	63 e0       	ldi	r22, 0x03	; 3
    134e:	80 e0       	ldi	r24, 0x00	; 0
    1350:	0e 94 4d 04 	call	0x89a	; 0x89a <_Z13glcd_writeStrcccPc>
		dtostrf(motor_, 3, 1, motor);
    1354:	60 91 6a 00 	lds	r22, 0x006A	; 0x80006a <motor_>
    1358:	70 91 6b 00 	lds	r23, 0x006B	; 0x80006b <motor_+0x1>
    135c:	07 2e       	mov	r0, r23
    135e:	00 0c       	add	r0, r0
    1360:	88 0b       	sbc	r24, r24
    1362:	99 0b       	sbc	r25, r25
    1364:	0e 94 e5 0d 	call	0x1bca	; 0x1bca <__floatsisf>
    1368:	8e 01       	movw	r16, r28
    136a:	0f 5f       	subi	r16, 0xFF	; 255
    136c:	1f 4f       	sbci	r17, 0xFF	; 255
    136e:	21 e0       	ldi	r18, 0x01	; 1
    1370:	43 e0       	ldi	r20, 0x03	; 3
    1372:	0e 94 1a 0f 	call	0x1e34	; 0x1e34 <dtostrf>
		glcd_writeStr(0, 7, 0,motor);		
    1376:	98 01       	movw	r18, r16
    1378:	40 e0       	ldi	r20, 0x00	; 0
    137a:	67 e0       	ldi	r22, 0x07	; 7
    137c:	80 e0       	ldi	r24, 0x00	; 0
    137e:	0e 94 4d 04 	call	0x89a	; 0x89a <_Z13glcd_writeStrcccPc>
// 		glcd_writeStr(0, 6, 0,Humidity);
// 		glcd_writeStr(0, 5, 0,Temperature);
		

		
		glcd_PageSelect(1);
    1382:	81 e0       	ldi	r24, 0x01	; 1
    1384:	0e 94 18 04 	call	0x830	; 0x830 <_Z15glcd_PageSelectc>
		glcd_SetCursor(0, 56);
    1388:	68 e3       	ldi	r22, 0x38	; 56
    138a:	80 e0       	ldi	r24, 0x00	; 0
    138c:	0e 94 2f 04 	call	0x85e	; 0x85e <_Z14glcd_SetCursorhh>
		glcd_writeChar(xhard);
    1390:	ce 01       	movw	r24, r28
    1392:	83 50       	subi	r24, 0x03	; 3
    1394:	9f 4f       	sbci	r25, 0xFF	; 255
    1396:	0e 94 3a 04 	call	0x874	; 0x874 <_Z14glcd_writeCharPc>
		glcd_SetCursor(0, 48);
    139a:	60 e3       	ldi	r22, 0x30	; 48
    139c:	80 e0       	ldi	r24, 0x00	; 0
    139e:	0e 94 2f 04 	call	0x85e	; 0x85e <_Z14glcd_SetCursorhh>
		glcd_writeChar(xharm);
    13a2:	ce 01       	movw	r24, r28
    13a4:	8b 50       	subi	r24, 0x0B	; 11
    13a6:	9f 4f       	sbci	r25, 0xFF	; 255
    13a8:	0e 94 3a 04 	call	0x874	; 0x874 <_Z14glcd_writeCharPc>
		glcd_SetCursor(0, 40);
    13ac:	68 e2       	ldi	r22, 0x28	; 40
    13ae:	80 e0       	ldi	r24, 0x00	; 0
    13b0:	0e 94 2f 04 	call	0x85e	; 0x85e <_Z14glcd_SetCursorhh>
		glcd_writeChar(xhara);
    13b4:	ce 01       	movw	r24, r28
    13b6:	83 51       	subi	r24, 0x13	; 19
    13b8:	9f 4f       	sbci	r25, 0xFF	; 255
    13ba:	0e 94 3a 04 	call	0x874	; 0x874 <_Z14glcd_writeCharPc>
 		glcd_SetCursor(0, 16);
    13be:	60 e1       	ldi	r22, 0x10	; 16
    13c0:	80 e0       	ldi	r24, 0x00	; 0
    13c2:	0e 94 2f 04 	call	0x85e	; 0x85e <_Z14glcd_SetCursorhh>
 		glcd_writeChar(donogh);
    13c6:	ce 01       	movw	r24, r28
    13c8:	83 5f       	subi	r24, 0xF3	; 243
    13ca:	9e 4f       	sbci	r25, 0xFE	; 254
    13cc:	0e 94 3a 04 	call	0x874	; 0x874 <_Z14glcd_writeCharPc>
		 
		glcd_SetCursor(1, 56);
    13d0:	68 e3       	ldi	r22, 0x38	; 56
    13d2:	81 e0       	ldi	r24, 0x01	; 1
    13d4:	0e 94 2f 04 	call	0x85e	; 0x85e <_Z14glcd_SetCursorhh>
		glcd_writeChar(xharr);
    13d8:	ce 01       	movw	r24, r28
    13da:	8b 51       	subi	r24, 0x1B	; 27
    13dc:	9f 4f       	sbci	r25, 0xFF	; 255
    13de:	0e 94 3a 04 	call	0x874	; 0x874 <_Z14glcd_writeCharPc>
		glcd_SetCursor(1, 48);
    13e2:	60 e3       	ldi	r22, 0x30	; 48
    13e4:	81 e0       	ldi	r24, 0x01	; 1
    13e6:	0e 94 2f 04 	call	0x85e	; 0x85e <_Z14glcd_SetCursorhh>
		glcd_writeChar(xhart);
    13ea:	ce 01       	movw	r24, r28
    13ec:	83 52       	subi	r24, 0x23	; 35
    13ee:	9f 4f       	sbci	r25, 0xFF	; 255
    13f0:	0e 94 3a 04 	call	0x874	; 0x874 <_Z14glcd_writeCharPc>
		glcd_SetCursor(1, 40);
    13f4:	68 e2       	ldi	r22, 0x28	; 40
    13f6:	81 e0       	ldi	r24, 0x01	; 1
    13f8:	0e 94 2f 04 	call	0x85e	; 0x85e <_Z14glcd_SetCursorhh>
		glcd_writeChar(xharo);
    13fc:	ce 01       	movw	r24, r28
    13fe:	8b 52       	subi	r24, 0x2B	; 43
    1400:	9f 4f       	sbci	r25, 0xFF	; 255
    1402:	0e 94 3a 04 	call	0x874	; 0x874 <_Z14glcd_writeCharPc>
		glcd_SetCursor(1, 32);
    1406:	60 e2       	ldi	r22, 0x20	; 32
    1408:	81 e0       	ldi	r24, 0x01	; 1
    140a:	0e 94 2f 04 	call	0x85e	; 0x85e <_Z14glcd_SetCursorhh>
		glcd_writeChar(xharb);
    140e:	ce 01       	movw	r24, r28
    1410:	83 53       	subi	r24, 0x33	; 51
    1412:	9f 4f       	sbci	r25, 0xFF	; 255
    1414:	0e 94 3a 04 	call	0x874	; 0x874 <_Z14glcd_writeCharPc>
		glcd_SetCursor(1, 24);
    1418:	68 e1       	ldi	r22, 0x18	; 24
    141a:	81 e0       	ldi	r24, 0x01	; 1
    141c:	0e 94 2f 04 	call	0x85e	; 0x85e <_Z14glcd_SetCursorhh>
		glcd_writeChar(xhartt);		
    1420:	ce 01       	movw	r24, r28
    1422:	8b 53       	subi	r24, 0x3B	; 59
    1424:	9f 4f       	sbci	r25, 0xFF	; 255
    1426:	0e 94 3a 04 	call	0x874	; 0x874 <_Z14glcd_writeCharPc>
		glcd_SetCursor(1, 16);
    142a:	60 e1       	ldi	r22, 0x10	; 16
    142c:	81 e0       	ldi	r24, 0x01	; 1
    142e:	0e 94 2f 04 	call	0x85e	; 0x85e <_Z14glcd_SetCursorhh>
		glcd_writeChar(donogh);
    1432:	ce 01       	movw	r24, r28
    1434:	83 5f       	subi	r24, 0xF3	; 243
    1436:	9e 4f       	sbci	r25, 0xFE	; 254
    1438:	0e 94 3a 04 	call	0x874	; 0x874 <_Z14glcd_writeCharPc>
		
		glcd_SetCursor(5, 56);
    143c:	68 e3       	ldi	r22, 0x38	; 56
    143e:	85 e0       	ldi	r24, 0x05	; 5
    1440:	0e 94 2f 04 	call	0x85e	; 0x85e <_Z14glcd_SetCursorhh>
		glcd_writeChar(xhard);
    1444:	ce 01       	movw	r24, r28
    1446:	83 50       	subi	r24, 0x03	; 3
    1448:	9f 4f       	sbci	r25, 0xFF	; 255
    144a:	0e 94 3a 04 	call	0x874	; 0x874 <_Z14glcd_writeCharPc>
		glcd_SetCursor(5, 48);
    144e:	60 e3       	ldi	r22, 0x30	; 48
    1450:	85 e0       	ldi	r24, 0x05	; 5
    1452:	0e 94 2f 04 	call	0x85e	; 0x85e <_Z14glcd_SetCursorhh>
		glcd_writeChar(xharm);
    1456:	ce 01       	movw	r24, r28
    1458:	8b 50       	subi	r24, 0x0B	; 11
    145a:	9f 4f       	sbci	r25, 0xFF	; 255
    145c:	0e 94 3a 04 	call	0x874	; 0x874 <_Z14glcd_writeCharPc>
		glcd_SetCursor(5, 40);
    1460:	68 e2       	ldi	r22, 0x28	; 40
    1462:	85 e0       	ldi	r24, 0x05	; 5
    1464:	0e 94 2f 04 	call	0x85e	; 0x85e <_Z14glcd_SetCursorhh>
		glcd_writeChar(xhara);
    1468:	ce 01       	movw	r24, r28
    146a:	83 51       	subi	r24, 0x13	; 19
    146c:	9f 4f       	sbci	r25, 0xFF	; 255
    146e:	0e 94 3a 04 	call	0x874	; 0x874 <_Z14glcd_writeCharPc>
		glcd_SetCursor(5, 16);
    1472:	60 e1       	ldi	r22, 0x10	; 16
    1474:	85 e0       	ldi	r24, 0x05	; 5
    1476:	0e 94 2f 04 	call	0x85e	; 0x85e <_Z14glcd_SetCursorhh>
		glcd_writeChar(donogh);
    147a:	ce 01       	movw	r24, r28
    147c:	83 5f       	subi	r24, 0xF3	; 243
    147e:	9e 4f       	sbci	r25, 0xFE	; 254
    1480:	0e 94 3a 04 	call	0x874	; 0x874 <_Z14glcd_writeCharPc>
		
		
		glcd_SetCursor(6, 56);
    1484:	68 e3       	ldi	r22, 0x38	; 56
    1486:	86 e0       	ldi	r24, 0x06	; 6
    1488:	0e 94 2f 04 	call	0x85e	; 0x85e <_Z14glcd_SetCursorhh>
		glcd_writeChar(xharr);
    148c:	ce 01       	movw	r24, r28
    148e:	8b 51       	subi	r24, 0x1B	; 27
    1490:	9f 4f       	sbci	r25, 0xFF	; 255
    1492:	0e 94 3a 04 	call	0x874	; 0x874 <_Z14glcd_writeCharPc>
		glcd_SetCursor(6, 48);
    1496:	60 e3       	ldi	r22, 0x30	; 48
    1498:	86 e0       	ldi	r24, 0x06	; 6
    149a:	0e 94 2f 04 	call	0x85e	; 0x85e <_Z14glcd_SetCursorhh>
		glcd_writeChar(xhart);
    149e:	ce 01       	movw	r24, r28
    14a0:	83 52       	subi	r24, 0x23	; 35
    14a2:	9f 4f       	sbci	r25, 0xFF	; 255
    14a4:	0e 94 3a 04 	call	0x874	; 0x874 <_Z14glcd_writeCharPc>
		glcd_SetCursor(6, 40);
    14a8:	68 e2       	ldi	r22, 0x28	; 40
    14aa:	86 e0       	ldi	r24, 0x06	; 6
    14ac:	0e 94 2f 04 	call	0x85e	; 0x85e <_Z14glcd_SetCursorhh>
		glcd_writeChar(xharo);
    14b0:	ce 01       	movw	r24, r28
    14b2:	8b 52       	subi	r24, 0x2B	; 43
    14b4:	9f 4f       	sbci	r25, 0xFF	; 255
    14b6:	0e 94 3a 04 	call	0x874	; 0x874 <_Z14glcd_writeCharPc>
		glcd_SetCursor(6, 32);
    14ba:	60 e2       	ldi	r22, 0x20	; 32
    14bc:	86 e0       	ldi	r24, 0x06	; 6
    14be:	0e 94 2f 04 	call	0x85e	; 0x85e <_Z14glcd_SetCursorhh>
		glcd_writeChar(xharb);
    14c2:	ce 01       	movw	r24, r28
    14c4:	83 53       	subi	r24, 0x33	; 51
    14c6:	9f 4f       	sbci	r25, 0xFF	; 255
    14c8:	0e 94 3a 04 	call	0x874	; 0x874 <_Z14glcd_writeCharPc>
		glcd_SetCursor(6, 24);
    14cc:	68 e1       	ldi	r22, 0x18	; 24
    14ce:	86 e0       	ldi	r24, 0x06	; 6
    14d0:	0e 94 2f 04 	call	0x85e	; 0x85e <_Z14glcd_SetCursorhh>
		glcd_writeChar(xhartt);
    14d4:	ce 01       	movw	r24, r28
    14d6:	8b 53       	subi	r24, 0x3B	; 59
    14d8:	9f 4f       	sbci	r25, 0xFF	; 255
    14da:	0e 94 3a 04 	call	0x874	; 0x874 <_Z14glcd_writeCharPc>
		glcd_SetCursor(6, 16);
    14de:	60 e1       	ldi	r22, 0x10	; 16
    14e0:	86 e0       	ldi	r24, 0x06	; 6
    14e2:	0e 94 2f 04 	call	0x85e	; 0x85e <_Z14glcd_SetCursorhh>
		glcd_writeChar(donogh);
    14e6:	ce 01       	movw	r24, r28
    14e8:	83 5f       	subi	r24, 0xF3	; 243
    14ea:	9e 4f       	sbci	r25, 0xFE	; 254
    14ec:	0e 94 3a 04 	call	0x874	; 0x874 <_Z14glcd_writeCharPc>
			
			
		glcd_SetCursor(4, 56);
    14f0:	68 e3       	ldi	r22, 0x38	; 56
    14f2:	84 e0       	ldi	r24, 0x04	; 4
    14f4:	0e 94 2f 04 	call	0x85e	; 0x85e <_Z14glcd_SetCursorhh>
		glcd_writeChar(xharn);	
    14f8:	ce 01       	movw	r24, r28
    14fa:	83 54       	subi	r24, 0x43	; 67
    14fc:	9f 4f       	sbci	r25, 0xFF	; 255
    14fe:	0e 94 3a 04 	call	0x874	; 0x874 <_Z14glcd_writeCharPc>
		glcd_SetCursor(4, 48);
    1502:	60 e3       	ldi	r22, 0x30	; 48
    1504:	84 e0       	ldi	r24, 0x04	; 4
    1506:	0e 94 2f 04 	call	0x85e	; 0x85e <_Z14glcd_SetCursorhh>
		glcd_writeChar(xharo);
    150a:	ce 01       	movw	r24, r28
    150c:	8b 52       	subi	r24, 0x2B	; 43
    150e:	9f 4f       	sbci	r25, 0xFF	; 255
    1510:	0e 94 3a 04 	call	0x874	; 0x874 <_Z14glcd_writeCharPc>
		glcd_SetCursor(4, 40);
    1514:	68 e2       	ldi	r22, 0x28	; 40
    1516:	84 e0       	ldi	r24, 0x04	; 4
    1518:	0e 94 2f 04 	call	0x85e	; 0x85e <_Z14glcd_SetCursorhh>
		glcd_writeChar(xhare);		
    151c:	ce 01       	movw	r24, r28
    151e:	8b 54       	subi	r24, 0x4B	; 75
    1520:	9f 4f       	sbci	r25, 0xFF	; 255
    1522:	0e 94 3a 04 	call	0x874	; 0x874 <_Z14glcd_writeCharPc>
		glcd_SetCursor(4, 16);
    1526:	60 e1       	ldi	r22, 0x10	; 16
    1528:	84 e0       	ldi	r24, 0x04	; 4
    152a:	0e 94 2f 04 	call	0x85e	; 0x85e <_Z14glcd_SetCursorhh>
		glcd_writeChar(donogh);
    152e:	ce 01       	movw	r24, r28
    1530:	83 5f       	subi	r24, 0xF3	; 243
    1532:	9e 4f       	sbci	r25, 0xFE	; 254
    1534:	0e 94 3a 04 	call	0x874	; 0x874 <_Z14glcd_writeCharPc>
		
		glcd_SetCursor(3, 56);
    1538:	68 e3       	ldi	r22, 0x38	; 56
    153a:	83 e0       	ldi	r24, 0x03	; 3
    153c:	0e 94 2f 04 	call	0x85e	; 0x85e <_Z14glcd_SetCursorhh>
		glcd_writeChar(xharm);
    1540:	ce 01       	movw	r24, r28
    1542:	8b 50       	subi	r24, 0x0B	; 11
    1544:	9f 4f       	sbci	r25, 0xFF	; 255
    1546:	0e 94 3a 04 	call	0x874	; 0x874 <_Z14glcd_writeCharPc>
		glcd_SetCursor(3, 48);
    154a:	60 e3       	ldi	r22, 0x30	; 48
    154c:	83 e0       	ldi	r24, 0x03	; 3
    154e:	0e 94 2f 04 	call	0x85e	; 0x85e <_Z14glcd_SetCursorhh>
		glcd_writeChar(xhara);
    1552:	ce 01       	movw	r24, r28
    1554:	83 51       	subi	r24, 0x13	; 19
    1556:	9f 4f       	sbci	r25, 0xFF	; 255
    1558:	0e 94 3a 04 	call	0x874	; 0x874 <_Z14glcd_writeCharPc>
		glcd_SetCursor(3, 40);
    155c:	68 e2       	ldi	r22, 0x28	; 40
    155e:	83 e0       	ldi	r24, 0x03	; 3
    1560:	0e 94 2f 04 	call	0x85e	; 0x85e <_Z14glcd_SetCursorhh>
		glcd_writeChar(xharn);
    1564:	ce 01       	movw	r24, r28
    1566:	83 54       	subi	r24, 0x43	; 67
    1568:	9f 4f       	sbci	r25, 0xFF	; 255
    156a:	0e 94 3a 04 	call	0x874	; 0x874 <_Z14glcd_writeCharPc>
		glcd_SetCursor(3, 32);
    156e:	60 e2       	ldi	r22, 0x20	; 32
    1570:	83 e0       	ldi	r24, 0x03	; 3
    1572:	0e 94 2f 04 	call	0x85e	; 0x85e <_Z14glcd_SetCursorhh>
		glcd_writeChar(xhard_);
    1576:	ce 01       	movw	r24, r28
    1578:	8b 57       	subi	r24, 0x7B	; 123
    157a:	9f 4f       	sbci	r25, 0xFF	; 255
    157c:	0e 94 3a 04 	call	0x874	; 0x874 <_Z14glcd_writeCharPc>
		glcd_SetCursor(3, 24);
    1580:	68 e1       	ldi	r22, 0x18	; 24
    1582:	83 e0       	ldi	r24, 0x03	; 3
    1584:	0e 94 2f 04 	call	0x85e	; 0x85e <_Z14glcd_SetCursorhh>
		glcd_writeChar(xharh);
    1588:	ce 01       	movw	r24, r28
    158a:	83 56       	subi	r24, 0x63	; 99
    158c:	9f 4f       	sbci	r25, 0xFF	; 255
    158e:	0e 94 3a 04 	call	0x874	; 0x874 <_Z14glcd_writeCharPc>
 		glcd_SetCursor(3, 16);
    1592:	60 e1       	ldi	r22, 0x10	; 16
    1594:	83 e0       	ldi	r24, 0x03	; 3
    1596:	0e 94 2f 04 	call	0x85e	; 0x85e <_Z14glcd_SetCursorhh>
 		glcd_writeChar(xharb);
    159a:	ce 01       	movw	r24, r28
    159c:	83 53       	subi	r24, 0x33	; 51
    159e:	9f 4f       	sbci	r25, 0xFF	; 255
    15a0:	0e 94 3a 04 	call	0x874	; 0x874 <_Z14glcd_writeCharPc>
 		glcd_SetCursor(3, 8);
    15a4:	68 e0       	ldi	r22, 0x08	; 8
    15a6:	83 e0       	ldi	r24, 0x03	; 3
    15a8:	0e 94 2f 04 	call	0x85e	; 0x85e <_Z14glcd_SetCursorhh>
 		glcd_writeChar(xharhh);			 
    15ac:	ce 01       	movw	r24, r28
    15ae:	8b 56       	subi	r24, 0x6B	; 107
    15b0:	9f 4f       	sbci	r25, 0xFF	; 255
    15b2:	0e 94 3a 04 	call	0x874	; 0x874 <_Z14glcd_writeCharPc>
		//glcd_PageSelect(0); 	
 		glcd_SetCursor(3, 0);
    15b6:	60 e0       	ldi	r22, 0x00	; 0
    15b8:	83 e0       	ldi	r24, 0x03	; 3
    15ba:	0e 94 2f 04 	call	0x85e	; 0x85e <_Z14glcd_SetCursorhh>
 		glcd_writeChar(xharh_);	//____________________________________
    15be:	ce 01       	movw	r24, r28
    15c0:	83 57       	subi	r24, 0x73	; 115
    15c2:	9f 4f       	sbci	r25, 0xFF	; 255
    15c4:	0e 94 3a 04 	call	0x874	; 0x874 <_Z14glcd_writeCharPc>
		 
		glcd_SetCursor(7, 56);
    15c8:	68 e3       	ldi	r22, 0x38	; 56
    15ca:	87 e0       	ldi	r24, 0x07	; 7
    15cc:	0e 94 2f 04 	call	0x85e	; 0x85e <_Z14glcd_SetCursorhh>
		glcd_writeChar(xharm);
    15d0:	ce 01       	movw	r24, r28
    15d2:	8b 50       	subi	r24, 0x0B	; 11
    15d4:	9f 4f       	sbci	r25, 0xFF	; 255
    15d6:	0e 94 3a 04 	call	0x874	; 0x874 <_Z14glcd_writeCharPc>
		glcd_SetCursor(7, 48);
    15da:	60 e3       	ldi	r22, 0x30	; 48
    15dc:	87 e0       	ldi	r24, 0x07	; 7
    15de:	0e 94 2f 04 	call	0x85e	; 0x85e <_Z14glcd_SetCursorhh>
		glcd_writeChar(xharo);
    15e2:	ce 01       	movw	r24, r28
    15e4:	8b 52       	subi	r24, 0x2B	; 43
    15e6:	9f 4f       	sbci	r25, 0xFF	; 255
    15e8:	0e 94 3a 04 	call	0x874	; 0x874 <_Z14glcd_writeCharPc>
		glcd_SetCursor(7, 40);
    15ec:	68 e2       	ldi	r22, 0x28	; 40
    15ee:	87 e0       	ldi	r24, 0x07	; 7
    15f0:	0e 94 2f 04 	call	0x85e	; 0x85e <_Z14glcd_SetCursorhh>
		glcd_writeChar(xhart_);
    15f4:	ce 01       	movw	r24, r28
    15f6:	83 59       	subi	r24, 0x93	; 147
    15f8:	9f 4f       	sbci	r25, 0xFF	; 255
    15fa:	0e 94 3a 04 	call	0x874	; 0x874 <_Z14glcd_writeCharPc>
		glcd_SetCursor(7, 32);
    15fe:	60 e2       	ldi	r22, 0x20	; 32
    1600:	87 e0       	ldi	r24, 0x07	; 7
    1602:	0e 94 2f 04 	call	0x85e	; 0x85e <_Z14glcd_SetCursorhh>
		glcd_writeChar(xharo);
    1606:	ce 01       	movw	r24, r28
    1608:	8b 52       	subi	r24, 0x2B	; 43
    160a:	9f 4f       	sbci	r25, 0xFF	; 255
    160c:	0e 94 3a 04 	call	0x874	; 0x874 <_Z14glcd_writeCharPc>
		glcd_SetCursor(7, 24);
    1610:	68 e1       	ldi	r22, 0x18	; 24
    1612:	87 e0       	ldi	r24, 0x07	; 7
    1614:	0e 94 2f 04 	call	0x85e	; 0x85e <_Z14glcd_SetCursorhh>
		glcd_writeChar(xharr);
    1618:	ce 01       	movw	r24, r28
    161a:	8b 51       	subi	r24, 0x1B	; 27
    161c:	9f 4f       	sbci	r25, 0xFF	; 255
    161e:	0e 94 3a 04 	call	0x874	; 0x874 <_Z14glcd_writeCharPc>
		glcd_SetCursor(7, 16);
    1622:	60 e1       	ldi	r22, 0x10	; 16
    1624:	87 e0       	ldi	r24, 0x07	; 7
    1626:	0e 94 2f 04 	call	0x85e	; 0x85e <_Z14glcd_SetCursorhh>
		glcd_writeChar(donogh);
    162a:	ce 01       	movw	r24, r28
    162c:	83 5f       	subi	r24, 0xF3	; 243
    162e:	9e 4f       	sbci	r25, 0xFE	; 254
    1630:	0e 94 3a 04 	call	0x874	; 0x874 <_Z14glcd_writeCharPc>
				 		
		glcd_PageSelect(0);
    1634:	80 e0       	ldi	r24, 0x00	; 0
    1636:	0e 94 18 04 	call	0x830	; 0x830 <_Z15glcd_PageSelectc>
		
		if (i==0)
    163a:	80 91 52 03 	lds	r24, 0x0352	; 0x800352 <i>
    163e:	90 91 53 03 	lds	r25, 0x0353	; 0x800353 <i+0x1>
    1642:	0f b6       	in	r0, 0x3f	; 63
    1644:	f8 94       	cli
    1646:	de bf       	out	0x3e, r29	; 62
    1648:	0f be       	out	0x3f, r0	; 63
    164a:	cd bf       	out	0x3d, r28	; 61
    164c:	00 97       	sbiw	r24, 0x00	; 0
    164e:	29 f5       	brne	.+74     	; 0x169a <main+0x7f4>
		{
			glcd_SetCursor(1, 56);
    1650:	68 e3       	ldi	r22, 0x38	; 56
    1652:	81 e0       	ldi	r24, 0x01	; 1
    1654:	0e 94 2f 04 	call	0x85e	; 0x85e <_Z14glcd_SetCursorhh>
			glcd_writeChar(space);			
    1658:	ce 01       	movw	r24, r28
    165a:	8b 5f       	subi	r24, 0xFB	; 251
    165c:	9e 4f       	sbci	r25, 0xFE	; 254
    165e:	0e 94 3a 04 	call	0x874	; 0x874 <_Z14glcd_writeCharPc>
			glcd_SetCursor(5, 56);
    1662:	68 e3       	ldi	r22, 0x38	; 56
    1664:	85 e0       	ldi	r24, 0x05	; 5
    1666:	0e 94 2f 04 	call	0x85e	; 0x85e <_Z14glcd_SetCursorhh>
			glcd_writeChar(space);
    166a:	ce 01       	movw	r24, r28
    166c:	8b 5f       	subi	r24, 0xFB	; 251
    166e:	9e 4f       	sbci	r25, 0xFE	; 254
    1670:	0e 94 3a 04 	call	0x874	; 0x874 <_Z14glcd_writeCharPc>
			glcd_SetCursor(6, 56);
    1674:	68 e3       	ldi	r22, 0x38	; 56
    1676:	86 e0       	ldi	r24, 0x06	; 6
    1678:	0e 94 2f 04 	call	0x85e	; 0x85e <_Z14glcd_SetCursorhh>
			glcd_writeChar(space);
    167c:	ce 01       	movw	r24, r28
    167e:	8b 5f       	subi	r24, 0xFB	; 251
    1680:	9e 4f       	sbci	r25, 0xFE	; 254
    1682:	0e 94 3a 04 	call	0x874	; 0x874 <_Z14glcd_writeCharPc>
			glcd_SetCursor(7, 56);
    1686:	68 e3       	ldi	r22, 0x38	; 56
    1688:	87 e0       	ldi	r24, 0x07	; 7
    168a:	0e 94 2f 04 	call	0x85e	; 0x85e <_Z14glcd_SetCursorhh>
			glcd_writeChar(space);
    168e:	ce 01       	movw	r24, r28
    1690:	8b 5f       	subi	r24, 0xFB	; 251
    1692:	9e 4f       	sbci	r25, 0xFE	; 254
    1694:	0e 94 3a 04 	call	0x874	; 0x874 <_Z14glcd_writeCharPc>
    1698:	ea c0       	rjmp	.+468    	; 0x186e <main+0x9c8>
		}
		else if (i==1)
    169a:	81 30       	cpi	r24, 0x01	; 1
    169c:	91 05       	cpc	r25, r1
    169e:	29 f5       	brne	.+74     	; 0x16ea <main+0x844>
		{
			glcd_SetCursor(0, 56);
    16a0:	68 e3       	ldi	r22, 0x38	; 56
    16a2:	80 e0       	ldi	r24, 0x00	; 0
    16a4:	0e 94 2f 04 	call	0x85e	; 0x85e <_Z14glcd_SetCursorhh>
			glcd_writeChar(space);
    16a8:	ce 01       	movw	r24, r28
    16aa:	8b 5f       	subi	r24, 0xFB	; 251
    16ac:	9e 4f       	sbci	r25, 0xFE	; 254
    16ae:	0e 94 3a 04 	call	0x874	; 0x874 <_Z14glcd_writeCharPc>
			glcd_SetCursor(5, 56);
    16b2:	68 e3       	ldi	r22, 0x38	; 56
    16b4:	85 e0       	ldi	r24, 0x05	; 5
    16b6:	0e 94 2f 04 	call	0x85e	; 0x85e <_Z14glcd_SetCursorhh>
			glcd_writeChar(space);
    16ba:	ce 01       	movw	r24, r28
    16bc:	8b 5f       	subi	r24, 0xFB	; 251
    16be:	9e 4f       	sbci	r25, 0xFE	; 254
    16c0:	0e 94 3a 04 	call	0x874	; 0x874 <_Z14glcd_writeCharPc>
			glcd_SetCursor(6, 56);
    16c4:	68 e3       	ldi	r22, 0x38	; 56
    16c6:	86 e0       	ldi	r24, 0x06	; 6
    16c8:	0e 94 2f 04 	call	0x85e	; 0x85e <_Z14glcd_SetCursorhh>
			glcd_writeChar(space);
    16cc:	ce 01       	movw	r24, r28
    16ce:	8b 5f       	subi	r24, 0xFB	; 251
    16d0:	9e 4f       	sbci	r25, 0xFE	; 254
    16d2:	0e 94 3a 04 	call	0x874	; 0x874 <_Z14glcd_writeCharPc>
			glcd_SetCursor(7, 56);
    16d6:	68 e3       	ldi	r22, 0x38	; 56
    16d8:	87 e0       	ldi	r24, 0x07	; 7
    16da:	0e 94 2f 04 	call	0x85e	; 0x85e <_Z14glcd_SetCursorhh>
			glcd_writeChar(space);
    16de:	ce 01       	movw	r24, r28
    16e0:	8b 5f       	subi	r24, 0xFB	; 251
    16e2:	9e 4f       	sbci	r25, 0xFE	; 254
    16e4:	0e 94 3a 04 	call	0x874	; 0x874 <_Z14glcd_writeCharPc>
    16e8:	c2 c0       	rjmp	.+388    	; 0x186e <main+0x9c8>
		}
		else if (i==4)
    16ea:	84 30       	cpi	r24, 0x04	; 4
    16ec:	91 05       	cpc	r25, r1
    16ee:	71 f5       	brne	.+92     	; 0x174c <main+0x8a6>
		{
			glcd_SetCursor(0, 56);
    16f0:	68 e3       	ldi	r22, 0x38	; 56
    16f2:	80 e0       	ldi	r24, 0x00	; 0
    16f4:	0e 94 2f 04 	call	0x85e	; 0x85e <_Z14glcd_SetCursorhh>
			glcd_writeChar(space);			
    16f8:	ce 01       	movw	r24, r28
    16fa:	8b 5f       	subi	r24, 0xFB	; 251
    16fc:	9e 4f       	sbci	r25, 0xFE	; 254
    16fe:	0e 94 3a 04 	call	0x874	; 0x874 <_Z14glcd_writeCharPc>
			glcd_SetCursor(1, 56);
    1702:	68 e3       	ldi	r22, 0x38	; 56
    1704:	81 e0       	ldi	r24, 0x01	; 1
    1706:	0e 94 2f 04 	call	0x85e	; 0x85e <_Z14glcd_SetCursorhh>
			glcd_writeChar(space);			
    170a:	ce 01       	movw	r24, r28
    170c:	8b 5f       	subi	r24, 0xFB	; 251
    170e:	9e 4f       	sbci	r25, 0xFE	; 254
    1710:	0e 94 3a 04 	call	0x874	; 0x874 <_Z14glcd_writeCharPc>
			glcd_SetCursor(5, 56);
    1714:	68 e3       	ldi	r22, 0x38	; 56
    1716:	85 e0       	ldi	r24, 0x05	; 5
    1718:	0e 94 2f 04 	call	0x85e	; 0x85e <_Z14glcd_SetCursorhh>
			glcd_writeChar(space);
    171c:	ce 01       	movw	r24, r28
    171e:	8b 5f       	subi	r24, 0xFB	; 251
    1720:	9e 4f       	sbci	r25, 0xFE	; 254
    1722:	0e 94 3a 04 	call	0x874	; 0x874 <_Z14glcd_writeCharPc>
			glcd_SetCursor(6, 56);
    1726:	68 e3       	ldi	r22, 0x38	; 56
    1728:	86 e0       	ldi	r24, 0x06	; 6
    172a:	0e 94 2f 04 	call	0x85e	; 0x85e <_Z14glcd_SetCursorhh>
			glcd_writeChar(space);
    172e:	ce 01       	movw	r24, r28
    1730:	8b 5f       	subi	r24, 0xFB	; 251
    1732:	9e 4f       	sbci	r25, 0xFE	; 254
    1734:	0e 94 3a 04 	call	0x874	; 0x874 <_Z14glcd_writeCharPc>
			glcd_SetCursor(7, 56);
    1738:	68 e3       	ldi	r22, 0x38	; 56
    173a:	87 e0       	ldi	r24, 0x07	; 7
    173c:	0e 94 2f 04 	call	0x85e	; 0x85e <_Z14glcd_SetCursorhh>
			glcd_writeChar(space);
    1740:	ce 01       	movw	r24, r28
    1742:	8b 5f       	subi	r24, 0xFB	; 251
    1744:	9e 4f       	sbci	r25, 0xFE	; 254
    1746:	0e 94 3a 04 	call	0x874	; 0x874 <_Z14glcd_writeCharPc>
    174a:	91 c0       	rjmp	.+290    	; 0x186e <main+0x9c8>
		}				
		else if (i==5)
    174c:	85 30       	cpi	r24, 0x05	; 5
    174e:	91 05       	cpc	r25, r1
    1750:	71 f5       	brne	.+92     	; 0x17ae <main+0x908>
		{
			glcd_SetCursor(0, 56);
    1752:	68 e3       	ldi	r22, 0x38	; 56
    1754:	80 e0       	ldi	r24, 0x00	; 0
    1756:	0e 94 2f 04 	call	0x85e	; 0x85e <_Z14glcd_SetCursorhh>
			glcd_writeChar(space);
    175a:	ce 01       	movw	r24, r28
    175c:	8b 5f       	subi	r24, 0xFB	; 251
    175e:	9e 4f       	sbci	r25, 0xFE	; 254
    1760:	0e 94 3a 04 	call	0x874	; 0x874 <_Z14glcd_writeCharPc>
			glcd_SetCursor(1, 56);
    1764:	68 e3       	ldi	r22, 0x38	; 56
    1766:	81 e0       	ldi	r24, 0x01	; 1
    1768:	0e 94 2f 04 	call	0x85e	; 0x85e <_Z14glcd_SetCursorhh>
			glcd_writeChar(space);			
    176c:	ce 01       	movw	r24, r28
    176e:	8b 5f       	subi	r24, 0xFB	; 251
    1770:	9e 4f       	sbci	r25, 0xFE	; 254
    1772:	0e 94 3a 04 	call	0x874	; 0x874 <_Z14glcd_writeCharPc>
			glcd_SetCursor(4, 56);
    1776:	68 e3       	ldi	r22, 0x38	; 56
    1778:	84 e0       	ldi	r24, 0x04	; 4
    177a:	0e 94 2f 04 	call	0x85e	; 0x85e <_Z14glcd_SetCursorhh>
			glcd_writeChar(space);
    177e:	ce 01       	movw	r24, r28
    1780:	8b 5f       	subi	r24, 0xFB	; 251
    1782:	9e 4f       	sbci	r25, 0xFE	; 254
    1784:	0e 94 3a 04 	call	0x874	; 0x874 <_Z14glcd_writeCharPc>
			glcd_SetCursor(6, 56);
    1788:	68 e3       	ldi	r22, 0x38	; 56
    178a:	86 e0       	ldi	r24, 0x06	; 6
    178c:	0e 94 2f 04 	call	0x85e	; 0x85e <_Z14glcd_SetCursorhh>
			glcd_writeChar(space);
    1790:	ce 01       	movw	r24, r28
    1792:	8b 5f       	subi	r24, 0xFB	; 251
    1794:	9e 4f       	sbci	r25, 0xFE	; 254
    1796:	0e 94 3a 04 	call	0x874	; 0x874 <_Z14glcd_writeCharPc>
			glcd_SetCursor(7, 56);
    179a:	68 e3       	ldi	r22, 0x38	; 56
    179c:	87 e0       	ldi	r24, 0x07	; 7
    179e:	0e 94 2f 04 	call	0x85e	; 0x85e <_Z14glcd_SetCursorhh>
			glcd_writeChar(space);
    17a2:	ce 01       	movw	r24, r28
    17a4:	8b 5f       	subi	r24, 0xFB	; 251
    17a6:	9e 4f       	sbci	r25, 0xFE	; 254
    17a8:	0e 94 3a 04 	call	0x874	; 0x874 <_Z14glcd_writeCharPc>
    17ac:	60 c0       	rjmp	.+192    	; 0x186e <main+0x9c8>
		}
		else if (i==6)
    17ae:	86 30       	cpi	r24, 0x06	; 6
    17b0:	91 05       	cpc	r25, r1
    17b2:	71 f5       	brne	.+92     	; 0x1810 <main+0x96a>
		{
			glcd_SetCursor(0, 56);
    17b4:	68 e3       	ldi	r22, 0x38	; 56
    17b6:	80 e0       	ldi	r24, 0x00	; 0
    17b8:	0e 94 2f 04 	call	0x85e	; 0x85e <_Z14glcd_SetCursorhh>
			glcd_writeChar(space);
    17bc:	ce 01       	movw	r24, r28
    17be:	8b 5f       	subi	r24, 0xFB	; 251
    17c0:	9e 4f       	sbci	r25, 0xFE	; 254
    17c2:	0e 94 3a 04 	call	0x874	; 0x874 <_Z14glcd_writeCharPc>
			glcd_SetCursor(1, 56);
    17c6:	68 e3       	ldi	r22, 0x38	; 56
    17c8:	81 e0       	ldi	r24, 0x01	; 1
    17ca:	0e 94 2f 04 	call	0x85e	; 0x85e <_Z14glcd_SetCursorhh>
			glcd_writeChar(space);			
    17ce:	ce 01       	movw	r24, r28
    17d0:	8b 5f       	subi	r24, 0xFB	; 251
    17d2:	9e 4f       	sbci	r25, 0xFE	; 254
    17d4:	0e 94 3a 04 	call	0x874	; 0x874 <_Z14glcd_writeCharPc>
			glcd_SetCursor(4, 56);
    17d8:	68 e3       	ldi	r22, 0x38	; 56
    17da:	84 e0       	ldi	r24, 0x04	; 4
    17dc:	0e 94 2f 04 	call	0x85e	; 0x85e <_Z14glcd_SetCursorhh>
			glcd_writeChar(space);
    17e0:	ce 01       	movw	r24, r28
    17e2:	8b 5f       	subi	r24, 0xFB	; 251
    17e4:	9e 4f       	sbci	r25, 0xFE	; 254
    17e6:	0e 94 3a 04 	call	0x874	; 0x874 <_Z14glcd_writeCharPc>
			glcd_SetCursor(5, 56);
    17ea:	68 e3       	ldi	r22, 0x38	; 56
    17ec:	85 e0       	ldi	r24, 0x05	; 5
    17ee:	0e 94 2f 04 	call	0x85e	; 0x85e <_Z14glcd_SetCursorhh>
			glcd_writeChar(space);
    17f2:	ce 01       	movw	r24, r28
    17f4:	8b 5f       	subi	r24, 0xFB	; 251
    17f6:	9e 4f       	sbci	r25, 0xFE	; 254
    17f8:	0e 94 3a 04 	call	0x874	; 0x874 <_Z14glcd_writeCharPc>
			glcd_SetCursor(7, 56);
    17fc:	68 e3       	ldi	r22, 0x38	; 56
    17fe:	87 e0       	ldi	r24, 0x07	; 7
    1800:	0e 94 2f 04 	call	0x85e	; 0x85e <_Z14glcd_SetCursorhh>
			glcd_writeChar(space);			
    1804:	ce 01       	movw	r24, r28
    1806:	8b 5f       	subi	r24, 0xFB	; 251
    1808:	9e 4f       	sbci	r25, 0xFE	; 254
    180a:	0e 94 3a 04 	call	0x874	; 0x874 <_Z14glcd_writeCharPc>
    180e:	2f c0       	rjmp	.+94     	; 0x186e <main+0x9c8>
		}
		else if (i==7)
    1810:	07 97       	sbiw	r24, 0x07	; 7
    1812:	69 f5       	brne	.+90     	; 0x186e <main+0x9c8>
		{
			glcd_SetCursor(0, 56);
    1814:	68 e3       	ldi	r22, 0x38	; 56
    1816:	80 e0       	ldi	r24, 0x00	; 0
    1818:	0e 94 2f 04 	call	0x85e	; 0x85e <_Z14glcd_SetCursorhh>
			glcd_writeChar(space);
    181c:	ce 01       	movw	r24, r28
    181e:	8b 5f       	subi	r24, 0xFB	; 251
    1820:	9e 4f       	sbci	r25, 0xFE	; 254
    1822:	0e 94 3a 04 	call	0x874	; 0x874 <_Z14glcd_writeCharPc>
			glcd_SetCursor(1, 56);
    1826:	68 e3       	ldi	r22, 0x38	; 56
    1828:	81 e0       	ldi	r24, 0x01	; 1
    182a:	0e 94 2f 04 	call	0x85e	; 0x85e <_Z14glcd_SetCursorhh>
			glcd_writeChar(space);			
    182e:	ce 01       	movw	r24, r28
    1830:	8b 5f       	subi	r24, 0xFB	; 251
    1832:	9e 4f       	sbci	r25, 0xFE	; 254
    1834:	0e 94 3a 04 	call	0x874	; 0x874 <_Z14glcd_writeCharPc>
			glcd_SetCursor(4, 56);
    1838:	68 e3       	ldi	r22, 0x38	; 56
    183a:	84 e0       	ldi	r24, 0x04	; 4
    183c:	0e 94 2f 04 	call	0x85e	; 0x85e <_Z14glcd_SetCursorhh>
			glcd_writeChar(space);
    1840:	ce 01       	movw	r24, r28
    1842:	8b 5f       	subi	r24, 0xFB	; 251
    1844:	9e 4f       	sbci	r25, 0xFE	; 254
    1846:	0e 94 3a 04 	call	0x874	; 0x874 <_Z14glcd_writeCharPc>
			glcd_SetCursor(5, 56);
    184a:	68 e3       	ldi	r22, 0x38	; 56
    184c:	85 e0       	ldi	r24, 0x05	; 5
    184e:	0e 94 2f 04 	call	0x85e	; 0x85e <_Z14glcd_SetCursorhh>
			glcd_writeChar(space);
    1852:	ce 01       	movw	r24, r28
    1854:	8b 5f       	subi	r24, 0xFB	; 251
    1856:	9e 4f       	sbci	r25, 0xFE	; 254
    1858:	0e 94 3a 04 	call	0x874	; 0x874 <_Z14glcd_writeCharPc>
			glcd_SetCursor(6, 56);
    185c:	68 e3       	ldi	r22, 0x38	; 56
    185e:	86 e0       	ldi	r24, 0x06	; 6
    1860:	0e 94 2f 04 	call	0x85e	; 0x85e <_Z14glcd_SetCursorhh>
			glcd_writeChar(space);
    1864:	ce 01       	movw	r24, r28
    1866:	8b 5f       	subi	r24, 0xFB	; 251
    1868:	9e 4f       	sbci	r25, 0xFE	; 254
    186a:	0e 94 3a 04 	call	0x874	; 0x874 <_Z14glcd_writeCharPc>
		}		
		
		glcd_SetCursor(i, 56);//=================================================
    186e:	68 e3       	ldi	r22, 0x38	; 56
    1870:	80 91 52 03 	lds	r24, 0x0352	; 0x800352 <i>
    1874:	0e 94 2f 04 	call	0x85e	; 0x85e <_Z14glcd_SetCursorhh>
		glcd_writeChar(felesh);
    1878:	ce 01       	movw	r24, r28
    187a:	8d 96       	adiw	r24, 0x2d	; 45
    187c:	0e 94 3a 04 	call	0x874	; 0x874 <_Z14glcd_writeCharPc>
		
		glcd_SetCursor(3, 56);
    1880:	68 e3       	ldi	r22, 0x38	; 56
    1882:	83 e0       	ldi	r24, 0x03	; 3
    1884:	0e 94 2f 04 	call	0x85e	; 0x85e <_Z14glcd_SetCursorhh>
		glcd_writeChar(xharch);			
    1888:	ce 01       	movw	r24, r28
    188a:	83 58       	subi	r24, 0x83	; 131
    188c:	9f 4f       	sbci	r25, 0xFF	; 255
    188e:	0e 94 3a 04 	call	0x874	; 0x874 <_Z14glcd_writeCharPc>
		glcd_SetCursor(3, 48);
    1892:	60 e3       	ldi	r22, 0x30	; 48
    1894:	83 e0       	ldi	r24, 0x03	; 3
    1896:	0e 94 2f 04 	call	0x85e	; 0x85e <_Z14glcd_SetCursorhh>
		glcd_writeChar(xharrr);
    189a:	ce 01       	movw	r24, r28
    189c:	8b 55       	subi	r24, 0x5B	; 91
    189e:	9f 4f       	sbci	r25, 0xFF	; 255
    18a0:	0e 94 3a 04 	call	0x874	; 0x874 <_Z14glcd_writeCharPc>
		glcd_SetCursor(3, 40);
    18a4:	68 e2       	ldi	r22, 0x28	; 40
    18a6:	83 e0       	ldi	r24, 0x03	; 3
    18a8:	0e 94 2f 04 	call	0x85e	; 0x85e <_Z14glcd_SetCursorhh>
		glcd_writeChar(donogh);	
    18ac:	ce 01       	movw	r24, r28
    18ae:	83 5f       	subi	r24, 0xF3	; 243
    18b0:	9e 4f       	sbci	r25, 0xFE	; 254
    18b2:	0e 94 3a 04 	call	0x874	; 0x874 <_Z14glcd_writeCharPc>
		
//-----------------------------------------------------------------------------------
		switch (n)
    18b6:	80 91 50 03 	lds	r24, 0x0350	; 0x800350 <n>
    18ba:	90 91 51 03 	lds	r25, 0x0351	; 0x800351 <n+0x1>
    18be:	81 30       	cpi	r24, 0x01	; 1
    18c0:	91 05       	cpc	r25, r1
    18c2:	09 f4       	brne	.+2      	; 0x18c6 <main+0xa20>
    18c4:	4c c0       	rjmp	.+152    	; 0x195e <main+0xab8>
    18c6:	1c f4       	brge	.+6      	; 0x18ce <main+0xa28>
    18c8:	89 2b       	or	r24, r25
    18ca:	49 f0       	breq	.+18     	; 0x18de <main+0xa38>
    18cc:	06 c1       	rjmp	.+524    	; 0x1ada <main+0xc34>
    18ce:	82 30       	cpi	r24, 0x02	; 2
    18d0:	91 05       	cpc	r25, r1
    18d2:	09 f4       	brne	.+2      	; 0x18d6 <main+0xa30>
    18d4:	84 c0       	rjmp	.+264    	; 0x19de <main+0xb38>
    18d6:	03 97       	sbiw	r24, 0x03	; 3
    18d8:	09 f4       	brne	.+2      	; 0x18dc <main+0xa36>
    18da:	c1 c0       	rjmp	.+386    	; 0x1a5e <main+0xbb8>
    18dc:	fe c0       	rjmp	.+508    	; 0x1ada <main+0xc34>
		{
			case 0:
				glcd_SetCursor(4, 48);
    18de:	60 e3       	ldi	r22, 0x30	; 48
    18e0:	84 e0       	ldi	r24, 0x04	; 4
    18e2:	0e 94 2f 04 	call	0x85e	; 0x85e <_Z14glcd_SetCursorhh>
				glcd_writeChar(space);
    18e6:	ce 01       	movw	r24, r28
    18e8:	8b 5f       	subi	r24, 0xFB	; 251
    18ea:	9e 4f       	sbci	r25, 0xFE	; 254
    18ec:	0e 94 3a 04 	call	0x874	; 0x874 <_Z14glcd_writeCharPc>
				glcd_SetCursor(4, 40);
    18f0:	68 e2       	ldi	r22, 0x28	; 40
    18f2:	84 e0       	ldi	r24, 0x04	; 4
    18f4:	0e 94 2f 04 	call	0x85e	; 0x85e <_Z14glcd_SetCursorhh>
				glcd_writeChar(space);
    18f8:	ce 01       	movw	r24, r28
    18fa:	8b 5f       	subi	r24, 0xFB	; 251
    18fc:	9e 4f       	sbci	r25, 0xFE	; 254
    18fe:	0e 94 3a 04 	call	0x874	; 0x874 <_Z14glcd_writeCharPc>
				glcd_SetCursor(4, 32);
    1902:	60 e2       	ldi	r22, 0x20	; 32
    1904:	84 e0       	ldi	r24, 0x04	; 4
    1906:	0e 94 2f 04 	call	0x85e	; 0x85e <_Z14glcd_SetCursorhh>
				glcd_writeChar(space);			
    190a:	ce 01       	movw	r24, r28
    190c:	8b 5f       	subi	r24, 0xFB	; 251
    190e:	9e 4f       	sbci	r25, 0xFE	; 254
    1910:	0e 94 3a 04 	call	0x874	; 0x874 <_Z14glcd_writeCharPc>
				glcd_SetCursor(4, 24);
    1914:	68 e1       	ldi	r22, 0x18	; 24
    1916:	84 e0       	ldi	r24, 0x04	; 4
    1918:	0e 94 2f 04 	call	0x85e	; 0x85e <_Z14glcd_SetCursorhh>
				glcd_writeChar(xharm);
    191c:	ce 01       	movw	r24, r28
    191e:	8b 50       	subi	r24, 0x0B	; 11
    1920:	9f 4f       	sbci	r25, 0xFF	; 255
    1922:	0e 94 3a 04 	call	0x874	; 0x874 <_Z14glcd_writeCharPc>
				glcd_SetCursor(4, 16);
    1926:	60 e1       	ldi	r22, 0x10	; 16
    1928:	84 e0       	ldi	r24, 0x04	; 4
    192a:	0e 94 2f 04 	call	0x85e	; 0x85e <_Z14glcd_SetCursorhh>
				glcd_writeChar(xharrr);
    192e:	ce 01       	movw	r24, r28
    1930:	8b 55       	subi	r24, 0x5B	; 91
    1932:	9f 4f       	sbci	r25, 0xFF	; 255
    1934:	0e 94 3a 04 	call	0x874	; 0x874 <_Z14glcd_writeCharPc>
				glcd_SetCursor(4, 8);
    1938:	68 e0       	ldi	r22, 0x08	; 8
    193a:	84 e0       	ldi	r24, 0x04	; 4
    193c:	0e 94 2f 04 	call	0x85e	; 0x85e <_Z14glcd_SetCursorhh>
				glcd_writeChar(xhargh);
    1940:	ce 01       	movw	r24, r28
    1942:	83 55       	subi	r24, 0x53	; 83
    1944:	9f 4f       	sbci	r25, 0xFF	; 255
    1946:	0e 94 3a 04 	call	0x874	; 0x874 <_Z14glcd_writeCharPc>
				glcd_SetCursor(4, 0);
    194a:	60 e0       	ldi	r22, 0x00	; 0
    194c:	84 e0       	ldi	r24, 0x04	; 4
    194e:	0e 94 2f 04 	call	0x85e	; 0x85e <_Z14glcd_SetCursorhh>
				glcd_writeChar(space);				
    1952:	ce 01       	movw	r24, r28
    1954:	8b 5f       	subi	r24, 0xFB	; 251
    1956:	9e 4f       	sbci	r25, 0xFE	; 254
    1958:	0e 94 3a 04 	call	0x874	; 0x874 <_Z14glcd_writeCharPc>
			break;
    195c:	c2 c0       	rjmp	.+388    	; 0x1ae2 <main+0xc3c>
			
			case 1:
				glcd_SetCursor(4, 48);
    195e:	60 e3       	ldi	r22, 0x30	; 48
    1960:	84 e0       	ldi	r24, 0x04	; 4
    1962:	0e 94 2f 04 	call	0x85e	; 0x85e <_Z14glcd_SetCursorhh>
				glcd_writeChar(xharb);
    1966:	ce 01       	movw	r24, r28
    1968:	83 53       	subi	r24, 0x33	; 51
    196a:	9f 4f       	sbci	r25, 0xFF	; 255
    196c:	0e 94 3a 04 	call	0x874	; 0x874 <_Z14glcd_writeCharPc>
				glcd_SetCursor(4, 40);
    1970:	68 e2       	ldi	r22, 0x28	; 40
    1972:	84 e0       	ldi	r24, 0x04	; 4
    1974:	0e 94 2f 04 	call	0x85e	; 0x85e <_Z14glcd_SetCursorhh>
				glcd_writeChar(xharo);
    1978:	ce 01       	movw	r24, r28
    197a:	8b 52       	subi	r24, 0x2B	; 43
    197c:	9f 4f       	sbci	r25, 0xFF	; 255
    197e:	0e 94 3a 04 	call	0x874	; 0x874 <_Z14glcd_writeCharPc>
				glcd_SetCursor(4, 32);
    1982:	60 e2       	ldi	r22, 0x20	; 32
    1984:	84 e0       	ldi	r24, 0x04	; 4
    1986:	0e 94 2f 04 	call	0x85e	; 0x85e <_Z14glcd_SetCursorhh>
				glcd_writeChar(xhargh_);
    198a:	ce 01       	movw	r24, r28
    198c:	8b 58       	subi	r24, 0x8B	; 139
    198e:	9f 4f       	sbci	r25, 0xFF	; 255
    1990:	0e 94 3a 04 	call	0x874	; 0x874 <_Z14glcd_writeCharPc>
				glcd_SetCursor(4, 24);
    1994:	68 e1       	ldi	r22, 0x18	; 24
    1996:	84 e0       	ldi	r24, 0x04	; 4
    1998:	0e 94 2f 04 	call	0x85e	; 0x85e <_Z14glcd_SetCursorhh>
				glcd_writeChar(xharl);
    199c:	ce 01       	movw	r24, r28
    199e:	8b 59       	subi	r24, 0x9B	; 155
    19a0:	9f 4f       	sbci	r25, 0xFF	; 255
    19a2:	0e 94 3a 04 	call	0x874	; 0x874 <_Z14glcd_writeCharPc>
				glcd_SetCursor(4, 16);
    19a6:	60 e1       	ldi	r22, 0x10	; 16
    19a8:	84 e0       	ldi	r24, 0x04	; 4
    19aa:	0e 94 2f 04 	call	0x85e	; 0x85e <_Z14glcd_SetCursorhh>
				glcd_writeChar(xharm);
    19ae:	ce 01       	movw	r24, r28
    19b0:	8b 50       	subi	r24, 0x0B	; 11
    19b2:	9f 4f       	sbci	r25, 0xFF	; 255
    19b4:	0e 94 3a 04 	call	0x874	; 0x874 <_Z14glcd_writeCharPc>
				glcd_SetCursor(4, 8);
    19b8:	68 e0       	ldi	r22, 0x08	; 8
    19ba:	84 e0       	ldi	r24, 0x04	; 4
    19bc:	0e 94 2f 04 	call	0x85e	; 0x85e <_Z14glcd_SetCursorhh>
				glcd_writeChar(xharo);
    19c0:	ce 01       	movw	r24, r28
    19c2:	8b 52       	subi	r24, 0x2B	; 43
    19c4:	9f 4f       	sbci	r25, 0xFF	; 255
    19c6:	0e 94 3a 04 	call	0x874	; 0x874 <_Z14glcd_writeCharPc>
				glcd_SetCursor(4, 0);
    19ca:	60 e0       	ldi	r22, 0x00	; 0
    19cc:	84 e0       	ldi	r24, 0x04	; 4
    19ce:	0e 94 2f 04 	call	0x85e	; 0x85e <_Z14glcd_SetCursorhh>
				glcd_writeChar(xharn__);
    19d2:	ce 01       	movw	r24, r28
    19d4:	83 5a       	subi	r24, 0xA3	; 163
    19d6:	9f 4f       	sbci	r25, 0xFF	; 255
    19d8:	0e 94 3a 04 	call	0x874	; 0x874 <_Z14glcd_writeCharPc>
			break;
    19dc:	82 c0       	rjmp	.+260    	; 0x1ae2 <main+0xc3c>
			
			case 2:
				glcd_SetCursor(4, 48);
    19de:	60 e3       	ldi	r22, 0x30	; 48
    19e0:	84 e0       	ldi	r24, 0x04	; 4
    19e2:	0e 94 2f 04 	call	0x85e	; 0x85e <_Z14glcd_SetCursorhh>
				glcd_writeChar(space);
    19e6:	ce 01       	movw	r24, r28
    19e8:	8b 5f       	subi	r24, 0xFB	; 251
    19ea:	9e 4f       	sbci	r25, 0xFE	; 254
    19ec:	0e 94 3a 04 	call	0x874	; 0x874 <_Z14glcd_writeCharPc>
				glcd_SetCursor(4, 40);
    19f0:	68 e2       	ldi	r22, 0x28	; 40
    19f2:	84 e0       	ldi	r24, 0x04	; 4
    19f4:	0e 94 2f 04 	call	0x85e	; 0x85e <_Z14glcd_SetCursorhh>
				glcd_writeChar(space);
    19f8:	ce 01       	movw	r24, r28
    19fa:	8b 5f       	subi	r24, 0xFB	; 251
    19fc:	9e 4f       	sbci	r25, 0xFE	; 254
    19fe:	0e 94 3a 04 	call	0x874	; 0x874 <_Z14glcd_writeCharPc>
				glcd_SetCursor(4, 32);
    1a02:	60 e2       	ldi	r22, 0x20	; 32
    1a04:	84 e0       	ldi	r24, 0x04	; 4
    1a06:	0e 94 2f 04 	call	0x85e	; 0x85e <_Z14glcd_SetCursorhh>
				glcd_writeChar(space);
    1a0a:	ce 01       	movw	r24, r28
    1a0c:	8b 5f       	subi	r24, 0xFB	; 251
    1a0e:	9e 4f       	sbci	r25, 0xFE	; 254
    1a10:	0e 94 3a 04 	call	0x874	; 0x874 <_Z14glcd_writeCharPc>
				glcd_SetCursor(4, 24);
    1a14:	68 e1       	ldi	r22, 0x18	; 24
    1a16:	84 e0       	ldi	r24, 0x04	; 4
    1a18:	0e 94 2f 04 	call	0x85e	; 0x85e <_Z14glcd_SetCursorhh>
				glcd_writeChar(xhark_);
    1a1c:	ce 01       	movw	r24, r28
    1a1e:	8b 5a       	subi	r24, 0xAB	; 171
    1a20:	9f 4f       	sbci	r25, 0xFF	; 255
    1a22:	0e 94 3a 04 	call	0x874	; 0x874 <_Z14glcd_writeCharPc>
				glcd_SetCursor(4, 16);
    1a26:	60 e1       	ldi	r22, 0x10	; 16
    1a28:	84 e0       	ldi	r24, 0x04	; 4
    1a2a:	0e 94 2f 04 	call	0x85e	; 0x85e <_Z14glcd_SetCursorhh>
				glcd_writeChar(xhar_b_);
    1a2e:	ce 01       	movw	r24, r28
    1a30:	8b 5b       	subi	r24, 0xBB	; 187
    1a32:	9f 4f       	sbci	r25, 0xFF	; 255
    1a34:	0e 94 3a 04 	call	0x874	; 0x874 <_Z14glcd_writeCharPc>
				glcd_SetCursor(4, 8);
    1a38:	68 e0       	ldi	r22, 0x08	; 8
    1a3a:	84 e0       	ldi	r24, 0x04	; 4
    1a3c:	0e 94 2f 04 	call	0x85e	; 0x85e <_Z14glcd_SetCursorhh>
				glcd_writeChar(xhar_k);
    1a40:	ce 01       	movw	r24, r28
    1a42:	83 5b       	subi	r24, 0xB3	; 179
    1a44:	9f 4f       	sbci	r25, 0xFF	; 255
    1a46:	0e 94 3a 04 	call	0x874	; 0x874 <_Z14glcd_writeCharPc>
				glcd_SetCursor(4, 0);
    1a4a:	60 e0       	ldi	r22, 0x00	; 0
    1a4c:	84 e0       	ldi	r24, 0x04	; 4
    1a4e:	0e 94 2f 04 	call	0x85e	; 0x85e <_Z14glcd_SetCursorhh>
				glcd_writeChar(space);
    1a52:	ce 01       	movw	r24, r28
    1a54:	8b 5f       	subi	r24, 0xFB	; 251
    1a56:	9e 4f       	sbci	r25, 0xFE	; 254
    1a58:	0e 94 3a 04 	call	0x874	; 0x874 <_Z14glcd_writeCharPc>
			break;	
    1a5c:	42 c0       	rjmp	.+132    	; 0x1ae2 <main+0xc3c>
					
			case 3:
				glcd_SetCursor(4, 48);
    1a5e:	60 e3       	ldi	r22, 0x30	; 48
    1a60:	84 e0       	ldi	r24, 0x04	; 4
    1a62:	0e 94 2f 04 	call	0x85e	; 0x85e <_Z14glcd_SetCursorhh>
				glcd_writeChar(xharsh_);
    1a66:	ce 01       	movw	r24, r28
    1a68:	cd 96       	adiw	r24, 0x3d	; 61
    1a6a:	0e 94 3a 04 	call	0x874	; 0x874 <_Z14glcd_writeCharPc>
				glcd_SetCursor(4, 40);
    1a6e:	68 e2       	ldi	r22, 0x28	; 40
    1a70:	84 e0       	ldi	r24, 0x04	; 4
    1a72:	0e 94 2f 04 	call	0x85e	; 0x85e <_Z14glcd_SetCursorhh>
				glcd_writeChar(xhar_t_);
    1a76:	ce 01       	movw	r24, r28
    1a78:	c5 96       	adiw	r24, 0x35	; 53
    1a7a:	0e 94 3a 04 	call	0x874	; 0x874 <_Z14glcd_writeCharPc>
				glcd_SetCursor(4, 32);
    1a7e:	60 e2       	ldi	r22, 0x20	; 32
    1a80:	84 e0       	ldi	r24, 0x04	; 4
    1a82:	0e 94 2f 04 	call	0x85e	; 0x85e <_Z14glcd_SetCursorhh>
				glcd_writeChar(xharrr);
    1a86:	ce 01       	movw	r24, r28
    1a88:	8b 55       	subi	r24, 0x5B	; 91
    1a8a:	9f 4f       	sbci	r25, 0xFF	; 255
    1a8c:	0e 94 3a 04 	call	0x874	; 0x874 <_Z14glcd_writeCharPc>
				glcd_SetCursor(4, 24);
    1a90:	68 e1       	ldi	r22, 0x18	; 24
    1a92:	84 e0       	ldi	r24, 0x04	; 4
    1a94:	0e 94 2f 04 	call	0x85e	; 0x85e <_Z14glcd_SetCursorhh>
				glcd_writeChar(xharm);
    1a98:	ce 01       	movw	r24, r28
    1a9a:	8b 50       	subi	r24, 0x0B	; 11
    1a9c:	9f 4f       	sbci	r25, 0xFF	; 255
    1a9e:	0e 94 3a 04 	call	0x874	; 0x874 <_Z14glcd_writeCharPc>
				glcd_SetCursor(4, 16);
    1aa2:	60 e1       	ldi	r22, 0x10	; 16
    1aa4:	84 e0       	ldi	r24, 0x04	; 4
    1aa6:	0e 94 2f 04 	call	0x85e	; 0x85e <_Z14glcd_SetCursorhh>
				glcd_writeChar(xharrr);
    1aaa:	ce 01       	movw	r24, r28
    1aac:	8b 55       	subi	r24, 0x5B	; 91
    1aae:	9f 4f       	sbci	r25, 0xFF	; 255
    1ab0:	0e 94 3a 04 	call	0x874	; 0x874 <_Z14glcd_writeCharPc>
				glcd_SetCursor(4, 8);
    1ab4:	68 e0       	ldi	r22, 0x08	; 8
    1ab6:	84 e0       	ldi	r24, 0x04	; 4
    1ab8:	0e 94 2f 04 	call	0x85e	; 0x85e <_Z14glcd_SetCursorhh>
				glcd_writeChar(xhargh);
    1abc:	ce 01       	movw	r24, r28
    1abe:	83 55       	subi	r24, 0x53	; 83
    1ac0:	9f 4f       	sbci	r25, 0xFF	; 255
    1ac2:	0e 94 3a 04 	call	0x874	; 0x874 <_Z14glcd_writeCharPc>
				glcd_SetCursor(4, 0);
    1ac6:	60 e0       	ldi	r22, 0x00	; 0
    1ac8:	84 e0       	ldi	r24, 0x04	; 4
    1aca:	0e 94 2f 04 	call	0x85e	; 0x85e <_Z14glcd_SetCursorhh>
				glcd_writeChar(space);
    1ace:	ce 01       	movw	r24, r28
    1ad0:	8b 5f       	subi	r24, 0xFB	; 251
    1ad2:	9e 4f       	sbci	r25, 0xFE	; 254
    1ad4:	0e 94 3a 04 	call	0x874	; 0x874 <_Z14glcd_writeCharPc>
			break;
    1ad8:	04 c0       	rjmp	.+8      	; 0x1ae2 <main+0xc3c>
			
			default:
				n = 0;		
    1ada:	10 92 51 03 	sts	0x0351, r1	; 0x800351 <n+0x1>
    1ade:	10 92 50 03 	sts	0x0350, r1	; 0x800350 <n>
	#else
		//round up by default
		__ticks_dc = (uint32_t)(ceil(fabs(__tmp)));
	#endif

	__builtin_avr_delay_cycles(__ticks_dc);
    1ae2:	ba e1       	ldi	r27, 0x1A	; 26
    1ae4:	ba 95       	dec	r27
    1ae6:	f1 f7       	brne	.-4      	; 0x1ae4 <main+0xc3e>
    1ae8:	00 c0       	rjmp	.+0      	; 0x1aea <main+0xc44>
		_delay_us(5);
 		/*PORTB ^=(1<<PB2);*/

// 		_delay_ms (3000);
 		//glcd_clear();
    }
    1aea:	3e cb       	rjmp	.-2436   	; 0x1168 <main+0x2c2>

00001aec <__subsf3>:
    1aec:	50 58       	subi	r21, 0x80	; 128

00001aee <__addsf3>:
    1aee:	bb 27       	eor	r27, r27
    1af0:	aa 27       	eor	r26, r26
    1af2:	0e 94 8e 0d 	call	0x1b1c	; 0x1b1c <__addsf3x>
    1af6:	0c 94 37 0e 	jmp	0x1c6e	; 0x1c6e <__fp_round>
    1afa:	0e 94 29 0e 	call	0x1c52	; 0x1c52 <__fp_pscA>
    1afe:	38 f0       	brcs	.+14     	; 0x1b0e <__addsf3+0x20>
    1b00:	0e 94 30 0e 	call	0x1c60	; 0x1c60 <__fp_pscB>
    1b04:	20 f0       	brcs	.+8      	; 0x1b0e <__addsf3+0x20>
    1b06:	39 f4       	brne	.+14     	; 0x1b16 <__addsf3+0x28>
    1b08:	9f 3f       	cpi	r25, 0xFF	; 255
    1b0a:	19 f4       	brne	.+6      	; 0x1b12 <__addsf3+0x24>
    1b0c:	26 f4       	brtc	.+8      	; 0x1b16 <__addsf3+0x28>
    1b0e:	0c 94 26 0e 	jmp	0x1c4c	; 0x1c4c <__fp_nan>
    1b12:	0e f4       	brtc	.+2      	; 0x1b16 <__addsf3+0x28>
    1b14:	e0 95       	com	r30
    1b16:	e7 fb       	bst	r30, 7
    1b18:	0c 94 20 0e 	jmp	0x1c40	; 0x1c40 <__fp_inf>

00001b1c <__addsf3x>:
    1b1c:	e9 2f       	mov	r30, r25
    1b1e:	0e 94 48 0e 	call	0x1c90	; 0x1c90 <__fp_split3>
    1b22:	58 f3       	brcs	.-42     	; 0x1afa <__addsf3+0xc>
    1b24:	ba 17       	cp	r27, r26
    1b26:	62 07       	cpc	r22, r18
    1b28:	73 07       	cpc	r23, r19
    1b2a:	84 07       	cpc	r24, r20
    1b2c:	95 07       	cpc	r25, r21
    1b2e:	20 f0       	brcs	.+8      	; 0x1b38 <__addsf3x+0x1c>
    1b30:	79 f4       	brne	.+30     	; 0x1b50 <__addsf3x+0x34>
    1b32:	a6 f5       	brtc	.+104    	; 0x1b9c <__addsf3x+0x80>
    1b34:	0c 94 6a 0e 	jmp	0x1cd4	; 0x1cd4 <__fp_zero>
    1b38:	0e f4       	brtc	.+2      	; 0x1b3c <__addsf3x+0x20>
    1b3a:	e0 95       	com	r30
    1b3c:	0b 2e       	mov	r0, r27
    1b3e:	ba 2f       	mov	r27, r26
    1b40:	a0 2d       	mov	r26, r0
    1b42:	0b 01       	movw	r0, r22
    1b44:	b9 01       	movw	r22, r18
    1b46:	90 01       	movw	r18, r0
    1b48:	0c 01       	movw	r0, r24
    1b4a:	ca 01       	movw	r24, r20
    1b4c:	a0 01       	movw	r20, r0
    1b4e:	11 24       	eor	r1, r1
    1b50:	ff 27       	eor	r31, r31
    1b52:	59 1b       	sub	r21, r25
    1b54:	99 f0       	breq	.+38     	; 0x1b7c <__addsf3x+0x60>
    1b56:	59 3f       	cpi	r21, 0xF9	; 249
    1b58:	50 f4       	brcc	.+20     	; 0x1b6e <__addsf3x+0x52>
    1b5a:	50 3e       	cpi	r21, 0xE0	; 224
    1b5c:	68 f1       	brcs	.+90     	; 0x1bb8 <__addsf3x+0x9c>
    1b5e:	1a 16       	cp	r1, r26
    1b60:	f0 40       	sbci	r31, 0x00	; 0
    1b62:	a2 2f       	mov	r26, r18
    1b64:	23 2f       	mov	r18, r19
    1b66:	34 2f       	mov	r19, r20
    1b68:	44 27       	eor	r20, r20
    1b6a:	58 5f       	subi	r21, 0xF8	; 248
    1b6c:	f3 cf       	rjmp	.-26     	; 0x1b54 <__addsf3x+0x38>
    1b6e:	46 95       	lsr	r20
    1b70:	37 95       	ror	r19
    1b72:	27 95       	ror	r18
    1b74:	a7 95       	ror	r26
    1b76:	f0 40       	sbci	r31, 0x00	; 0
    1b78:	53 95       	inc	r21
    1b7a:	c9 f7       	brne	.-14     	; 0x1b6e <__addsf3x+0x52>
    1b7c:	7e f4       	brtc	.+30     	; 0x1b9c <__addsf3x+0x80>
    1b7e:	1f 16       	cp	r1, r31
    1b80:	ba 0b       	sbc	r27, r26
    1b82:	62 0b       	sbc	r22, r18
    1b84:	73 0b       	sbc	r23, r19
    1b86:	84 0b       	sbc	r24, r20
    1b88:	ba f0       	brmi	.+46     	; 0x1bb8 <__addsf3x+0x9c>
    1b8a:	91 50       	subi	r25, 0x01	; 1
    1b8c:	a1 f0       	breq	.+40     	; 0x1bb6 <__addsf3x+0x9a>
    1b8e:	ff 0f       	add	r31, r31
    1b90:	bb 1f       	adc	r27, r27
    1b92:	66 1f       	adc	r22, r22
    1b94:	77 1f       	adc	r23, r23
    1b96:	88 1f       	adc	r24, r24
    1b98:	c2 f7       	brpl	.-16     	; 0x1b8a <__addsf3x+0x6e>
    1b9a:	0e c0       	rjmp	.+28     	; 0x1bb8 <__addsf3x+0x9c>
    1b9c:	ba 0f       	add	r27, r26
    1b9e:	62 1f       	adc	r22, r18
    1ba0:	73 1f       	adc	r23, r19
    1ba2:	84 1f       	adc	r24, r20
    1ba4:	48 f4       	brcc	.+18     	; 0x1bb8 <__addsf3x+0x9c>
    1ba6:	87 95       	ror	r24
    1ba8:	77 95       	ror	r23
    1baa:	67 95       	ror	r22
    1bac:	b7 95       	ror	r27
    1bae:	f7 95       	ror	r31
    1bb0:	9e 3f       	cpi	r25, 0xFE	; 254
    1bb2:	08 f0       	brcs	.+2      	; 0x1bb6 <__addsf3x+0x9a>
    1bb4:	b0 cf       	rjmp	.-160    	; 0x1b16 <__addsf3+0x28>
    1bb6:	93 95       	inc	r25
    1bb8:	88 0f       	add	r24, r24
    1bba:	08 f0       	brcs	.+2      	; 0x1bbe <__addsf3x+0xa2>
    1bbc:	99 27       	eor	r25, r25
    1bbe:	ee 0f       	add	r30, r30
    1bc0:	97 95       	ror	r25
    1bc2:	87 95       	ror	r24
    1bc4:	08 95       	ret

00001bc6 <__floatunsisf>:
    1bc6:	e8 94       	clt
    1bc8:	09 c0       	rjmp	.+18     	; 0x1bdc <__floatsisf+0x12>

00001bca <__floatsisf>:
    1bca:	97 fb       	bst	r25, 7
    1bcc:	3e f4       	brtc	.+14     	; 0x1bdc <__floatsisf+0x12>
    1bce:	90 95       	com	r25
    1bd0:	80 95       	com	r24
    1bd2:	70 95       	com	r23
    1bd4:	61 95       	neg	r22
    1bd6:	7f 4f       	sbci	r23, 0xFF	; 255
    1bd8:	8f 4f       	sbci	r24, 0xFF	; 255
    1bda:	9f 4f       	sbci	r25, 0xFF	; 255
    1bdc:	99 23       	and	r25, r25
    1bde:	a9 f0       	breq	.+42     	; 0x1c0a <__floatsisf+0x40>
    1be0:	f9 2f       	mov	r31, r25
    1be2:	96 e9       	ldi	r25, 0x96	; 150
    1be4:	bb 27       	eor	r27, r27
    1be6:	93 95       	inc	r25
    1be8:	f6 95       	lsr	r31
    1bea:	87 95       	ror	r24
    1bec:	77 95       	ror	r23
    1bee:	67 95       	ror	r22
    1bf0:	b7 95       	ror	r27
    1bf2:	f1 11       	cpse	r31, r1
    1bf4:	f8 cf       	rjmp	.-16     	; 0x1be6 <__floatsisf+0x1c>
    1bf6:	fa f4       	brpl	.+62     	; 0x1c36 <__floatsisf+0x6c>
    1bf8:	bb 0f       	add	r27, r27
    1bfa:	11 f4       	brne	.+4      	; 0x1c00 <__floatsisf+0x36>
    1bfc:	60 ff       	sbrs	r22, 0
    1bfe:	1b c0       	rjmp	.+54     	; 0x1c36 <__floatsisf+0x6c>
    1c00:	6f 5f       	subi	r22, 0xFF	; 255
    1c02:	7f 4f       	sbci	r23, 0xFF	; 255
    1c04:	8f 4f       	sbci	r24, 0xFF	; 255
    1c06:	9f 4f       	sbci	r25, 0xFF	; 255
    1c08:	16 c0       	rjmp	.+44     	; 0x1c36 <__floatsisf+0x6c>
    1c0a:	88 23       	and	r24, r24
    1c0c:	11 f0       	breq	.+4      	; 0x1c12 <__floatsisf+0x48>
    1c0e:	96 e9       	ldi	r25, 0x96	; 150
    1c10:	11 c0       	rjmp	.+34     	; 0x1c34 <__floatsisf+0x6a>
    1c12:	77 23       	and	r23, r23
    1c14:	21 f0       	breq	.+8      	; 0x1c1e <__floatsisf+0x54>
    1c16:	9e e8       	ldi	r25, 0x8E	; 142
    1c18:	87 2f       	mov	r24, r23
    1c1a:	76 2f       	mov	r23, r22
    1c1c:	05 c0       	rjmp	.+10     	; 0x1c28 <__floatsisf+0x5e>
    1c1e:	66 23       	and	r22, r22
    1c20:	71 f0       	breq	.+28     	; 0x1c3e <__floatsisf+0x74>
    1c22:	96 e8       	ldi	r25, 0x86	; 134
    1c24:	86 2f       	mov	r24, r22
    1c26:	70 e0       	ldi	r23, 0x00	; 0
    1c28:	60 e0       	ldi	r22, 0x00	; 0
    1c2a:	2a f0       	brmi	.+10     	; 0x1c36 <__floatsisf+0x6c>
    1c2c:	9a 95       	dec	r25
    1c2e:	66 0f       	add	r22, r22
    1c30:	77 1f       	adc	r23, r23
    1c32:	88 1f       	adc	r24, r24
    1c34:	da f7       	brpl	.-10     	; 0x1c2c <__floatsisf+0x62>
    1c36:	88 0f       	add	r24, r24
    1c38:	96 95       	lsr	r25
    1c3a:	87 95       	ror	r24
    1c3c:	97 f9       	bld	r25, 7
    1c3e:	08 95       	ret

00001c40 <__fp_inf>:
    1c40:	97 f9       	bld	r25, 7
    1c42:	9f 67       	ori	r25, 0x7F	; 127
    1c44:	80 e8       	ldi	r24, 0x80	; 128
    1c46:	70 e0       	ldi	r23, 0x00	; 0
    1c48:	60 e0       	ldi	r22, 0x00	; 0
    1c4a:	08 95       	ret

00001c4c <__fp_nan>:
    1c4c:	9f ef       	ldi	r25, 0xFF	; 255
    1c4e:	80 ec       	ldi	r24, 0xC0	; 192
    1c50:	08 95       	ret

00001c52 <__fp_pscA>:
    1c52:	00 24       	eor	r0, r0
    1c54:	0a 94       	dec	r0
    1c56:	16 16       	cp	r1, r22
    1c58:	17 06       	cpc	r1, r23
    1c5a:	18 06       	cpc	r1, r24
    1c5c:	09 06       	cpc	r0, r25
    1c5e:	08 95       	ret

00001c60 <__fp_pscB>:
    1c60:	00 24       	eor	r0, r0
    1c62:	0a 94       	dec	r0
    1c64:	12 16       	cp	r1, r18
    1c66:	13 06       	cpc	r1, r19
    1c68:	14 06       	cpc	r1, r20
    1c6a:	05 06       	cpc	r0, r21
    1c6c:	08 95       	ret

00001c6e <__fp_round>:
    1c6e:	09 2e       	mov	r0, r25
    1c70:	03 94       	inc	r0
    1c72:	00 0c       	add	r0, r0
    1c74:	11 f4       	brne	.+4      	; 0x1c7a <__fp_round+0xc>
    1c76:	88 23       	and	r24, r24
    1c78:	52 f0       	brmi	.+20     	; 0x1c8e <__fp_round+0x20>
    1c7a:	bb 0f       	add	r27, r27
    1c7c:	40 f4       	brcc	.+16     	; 0x1c8e <__fp_round+0x20>
    1c7e:	bf 2b       	or	r27, r31
    1c80:	11 f4       	brne	.+4      	; 0x1c86 <__fp_round+0x18>
    1c82:	60 ff       	sbrs	r22, 0
    1c84:	04 c0       	rjmp	.+8      	; 0x1c8e <__fp_round+0x20>
    1c86:	6f 5f       	subi	r22, 0xFF	; 255
    1c88:	7f 4f       	sbci	r23, 0xFF	; 255
    1c8a:	8f 4f       	sbci	r24, 0xFF	; 255
    1c8c:	9f 4f       	sbci	r25, 0xFF	; 255
    1c8e:	08 95       	ret

00001c90 <__fp_split3>:
    1c90:	57 fd       	sbrc	r21, 7
    1c92:	90 58       	subi	r25, 0x80	; 128
    1c94:	44 0f       	add	r20, r20
    1c96:	55 1f       	adc	r21, r21
    1c98:	59 f0       	breq	.+22     	; 0x1cb0 <__fp_splitA+0x10>
    1c9a:	5f 3f       	cpi	r21, 0xFF	; 255
    1c9c:	71 f0       	breq	.+28     	; 0x1cba <__fp_splitA+0x1a>
    1c9e:	47 95       	ror	r20

00001ca0 <__fp_splitA>:
    1ca0:	88 0f       	add	r24, r24
    1ca2:	97 fb       	bst	r25, 7
    1ca4:	99 1f       	adc	r25, r25
    1ca6:	61 f0       	breq	.+24     	; 0x1cc0 <__fp_splitA+0x20>
    1ca8:	9f 3f       	cpi	r25, 0xFF	; 255
    1caa:	79 f0       	breq	.+30     	; 0x1cca <__fp_splitA+0x2a>
    1cac:	87 95       	ror	r24
    1cae:	08 95       	ret
    1cb0:	12 16       	cp	r1, r18
    1cb2:	13 06       	cpc	r1, r19
    1cb4:	14 06       	cpc	r1, r20
    1cb6:	55 1f       	adc	r21, r21
    1cb8:	f2 cf       	rjmp	.-28     	; 0x1c9e <__fp_split3+0xe>
    1cba:	46 95       	lsr	r20
    1cbc:	f1 df       	rcall	.-30     	; 0x1ca0 <__fp_splitA>
    1cbe:	08 c0       	rjmp	.+16     	; 0x1cd0 <__fp_splitA+0x30>
    1cc0:	16 16       	cp	r1, r22
    1cc2:	17 06       	cpc	r1, r23
    1cc4:	18 06       	cpc	r1, r24
    1cc6:	99 1f       	adc	r25, r25
    1cc8:	f1 cf       	rjmp	.-30     	; 0x1cac <__fp_splitA+0xc>
    1cca:	86 95       	lsr	r24
    1ccc:	71 05       	cpc	r23, r1
    1cce:	61 05       	cpc	r22, r1
    1cd0:	08 94       	sec
    1cd2:	08 95       	ret

00001cd4 <__fp_zero>:
    1cd4:	e8 94       	clt

00001cd6 <__fp_szero>:
    1cd6:	bb 27       	eor	r27, r27
    1cd8:	66 27       	eor	r22, r22
    1cda:	77 27       	eor	r23, r23
    1cdc:	cb 01       	movw	r24, r22
    1cde:	97 f9       	bld	r25, 7
    1ce0:	08 95       	ret

00001ce2 <__mulsf3>:
    1ce2:	0e 94 84 0e 	call	0x1d08	; 0x1d08 <__mulsf3x>
    1ce6:	0c 94 37 0e 	jmp	0x1c6e	; 0x1c6e <__fp_round>
    1cea:	0e 94 29 0e 	call	0x1c52	; 0x1c52 <__fp_pscA>
    1cee:	38 f0       	brcs	.+14     	; 0x1cfe <__mulsf3+0x1c>
    1cf0:	0e 94 30 0e 	call	0x1c60	; 0x1c60 <__fp_pscB>
    1cf4:	20 f0       	brcs	.+8      	; 0x1cfe <__mulsf3+0x1c>
    1cf6:	95 23       	and	r25, r21
    1cf8:	11 f0       	breq	.+4      	; 0x1cfe <__mulsf3+0x1c>
    1cfa:	0c 94 20 0e 	jmp	0x1c40	; 0x1c40 <__fp_inf>
    1cfe:	0c 94 26 0e 	jmp	0x1c4c	; 0x1c4c <__fp_nan>
    1d02:	11 24       	eor	r1, r1
    1d04:	0c 94 6b 0e 	jmp	0x1cd6	; 0x1cd6 <__fp_szero>

00001d08 <__mulsf3x>:
    1d08:	0e 94 48 0e 	call	0x1c90	; 0x1c90 <__fp_split3>
    1d0c:	70 f3       	brcs	.-36     	; 0x1cea <__mulsf3+0x8>

00001d0e <__mulsf3_pse>:
    1d0e:	95 9f       	mul	r25, r21
    1d10:	c1 f3       	breq	.-16     	; 0x1d02 <__mulsf3+0x20>
    1d12:	95 0f       	add	r25, r21
    1d14:	50 e0       	ldi	r21, 0x00	; 0
    1d16:	55 1f       	adc	r21, r21
    1d18:	62 9f       	mul	r22, r18
    1d1a:	f0 01       	movw	r30, r0
    1d1c:	72 9f       	mul	r23, r18
    1d1e:	bb 27       	eor	r27, r27
    1d20:	f0 0d       	add	r31, r0
    1d22:	b1 1d       	adc	r27, r1
    1d24:	63 9f       	mul	r22, r19
    1d26:	aa 27       	eor	r26, r26
    1d28:	f0 0d       	add	r31, r0
    1d2a:	b1 1d       	adc	r27, r1
    1d2c:	aa 1f       	adc	r26, r26
    1d2e:	64 9f       	mul	r22, r20
    1d30:	66 27       	eor	r22, r22
    1d32:	b0 0d       	add	r27, r0
    1d34:	a1 1d       	adc	r26, r1
    1d36:	66 1f       	adc	r22, r22
    1d38:	82 9f       	mul	r24, r18
    1d3a:	22 27       	eor	r18, r18
    1d3c:	b0 0d       	add	r27, r0
    1d3e:	a1 1d       	adc	r26, r1
    1d40:	62 1f       	adc	r22, r18
    1d42:	73 9f       	mul	r23, r19
    1d44:	b0 0d       	add	r27, r0
    1d46:	a1 1d       	adc	r26, r1
    1d48:	62 1f       	adc	r22, r18
    1d4a:	83 9f       	mul	r24, r19
    1d4c:	a0 0d       	add	r26, r0
    1d4e:	61 1d       	adc	r22, r1
    1d50:	22 1f       	adc	r18, r18
    1d52:	74 9f       	mul	r23, r20
    1d54:	33 27       	eor	r19, r19
    1d56:	a0 0d       	add	r26, r0
    1d58:	61 1d       	adc	r22, r1
    1d5a:	23 1f       	adc	r18, r19
    1d5c:	84 9f       	mul	r24, r20
    1d5e:	60 0d       	add	r22, r0
    1d60:	21 1d       	adc	r18, r1
    1d62:	82 2f       	mov	r24, r18
    1d64:	76 2f       	mov	r23, r22
    1d66:	6a 2f       	mov	r22, r26
    1d68:	11 24       	eor	r1, r1
    1d6a:	9f 57       	subi	r25, 0x7F	; 127
    1d6c:	50 40       	sbci	r21, 0x00	; 0
    1d6e:	9a f0       	brmi	.+38     	; 0x1d96 <__mulsf3_pse+0x88>
    1d70:	f1 f0       	breq	.+60     	; 0x1dae <__mulsf3_pse+0xa0>
    1d72:	88 23       	and	r24, r24
    1d74:	4a f0       	brmi	.+18     	; 0x1d88 <__mulsf3_pse+0x7a>
    1d76:	ee 0f       	add	r30, r30
    1d78:	ff 1f       	adc	r31, r31
    1d7a:	bb 1f       	adc	r27, r27
    1d7c:	66 1f       	adc	r22, r22
    1d7e:	77 1f       	adc	r23, r23
    1d80:	88 1f       	adc	r24, r24
    1d82:	91 50       	subi	r25, 0x01	; 1
    1d84:	50 40       	sbci	r21, 0x00	; 0
    1d86:	a9 f7       	brne	.-22     	; 0x1d72 <__mulsf3_pse+0x64>
    1d88:	9e 3f       	cpi	r25, 0xFE	; 254
    1d8a:	51 05       	cpc	r21, r1
    1d8c:	80 f0       	brcs	.+32     	; 0x1dae <__mulsf3_pse+0xa0>
    1d8e:	0c 94 20 0e 	jmp	0x1c40	; 0x1c40 <__fp_inf>
    1d92:	0c 94 6b 0e 	jmp	0x1cd6	; 0x1cd6 <__fp_szero>
    1d96:	5f 3f       	cpi	r21, 0xFF	; 255
    1d98:	e4 f3       	brlt	.-8      	; 0x1d92 <__mulsf3_pse+0x84>
    1d9a:	98 3e       	cpi	r25, 0xE8	; 232
    1d9c:	d4 f3       	brlt	.-12     	; 0x1d92 <__mulsf3_pse+0x84>
    1d9e:	86 95       	lsr	r24
    1da0:	77 95       	ror	r23
    1da2:	67 95       	ror	r22
    1da4:	b7 95       	ror	r27
    1da6:	f7 95       	ror	r31
    1da8:	e7 95       	ror	r30
    1daa:	9f 5f       	subi	r25, 0xFF	; 255
    1dac:	c1 f7       	brne	.-16     	; 0x1d9e <__mulsf3_pse+0x90>
    1dae:	fe 2b       	or	r31, r30
    1db0:	88 0f       	add	r24, r24
    1db2:	91 1d       	adc	r25, r1
    1db4:	96 95       	lsr	r25
    1db6:	87 95       	ror	r24
    1db8:	97 f9       	bld	r25, 7
    1dba:	08 95       	ret

00001dbc <__udivmodsi4>:
    1dbc:	a1 e2       	ldi	r26, 0x21	; 33
    1dbe:	1a 2e       	mov	r1, r26
    1dc0:	aa 1b       	sub	r26, r26
    1dc2:	bb 1b       	sub	r27, r27
    1dc4:	fd 01       	movw	r30, r26
    1dc6:	0d c0       	rjmp	.+26     	; 0x1de2 <__udivmodsi4_ep>

00001dc8 <__udivmodsi4_loop>:
    1dc8:	aa 1f       	adc	r26, r26
    1dca:	bb 1f       	adc	r27, r27
    1dcc:	ee 1f       	adc	r30, r30
    1dce:	ff 1f       	adc	r31, r31
    1dd0:	a2 17       	cp	r26, r18
    1dd2:	b3 07       	cpc	r27, r19
    1dd4:	e4 07       	cpc	r30, r20
    1dd6:	f5 07       	cpc	r31, r21
    1dd8:	20 f0       	brcs	.+8      	; 0x1de2 <__udivmodsi4_ep>
    1dda:	a2 1b       	sub	r26, r18
    1ddc:	b3 0b       	sbc	r27, r19
    1dde:	e4 0b       	sbc	r30, r20
    1de0:	f5 0b       	sbc	r31, r21

00001de2 <__udivmodsi4_ep>:
    1de2:	66 1f       	adc	r22, r22
    1de4:	77 1f       	adc	r23, r23
    1de6:	88 1f       	adc	r24, r24
    1de8:	99 1f       	adc	r25, r25
    1dea:	1a 94       	dec	r1
    1dec:	69 f7       	brne	.-38     	; 0x1dc8 <__udivmodsi4_loop>
    1dee:	60 95       	com	r22
    1df0:	70 95       	com	r23
    1df2:	80 95       	com	r24
    1df4:	90 95       	com	r25
    1df6:	9b 01       	movw	r18, r22
    1df8:	ac 01       	movw	r20, r24
    1dfa:	bd 01       	movw	r22, r26
    1dfc:	cf 01       	movw	r24, r30
    1dfe:	08 95       	ret

00001e00 <__umulhisi3>:
    1e00:	a2 9f       	mul	r26, r18
    1e02:	b0 01       	movw	r22, r0
    1e04:	b3 9f       	mul	r27, r19
    1e06:	c0 01       	movw	r24, r0
    1e08:	a3 9f       	mul	r26, r19
    1e0a:	70 0d       	add	r23, r0
    1e0c:	81 1d       	adc	r24, r1
    1e0e:	11 24       	eor	r1, r1
    1e10:	91 1d       	adc	r25, r1
    1e12:	b2 9f       	mul	r27, r18
    1e14:	70 0d       	add	r23, r0
    1e16:	81 1d       	adc	r24, r1
    1e18:	11 24       	eor	r1, r1
    1e1a:	91 1d       	adc	r25, r1
    1e1c:	08 95       	ret

00001e1e <__muluhisi3>:
    1e1e:	0e 94 00 0f 	call	0x1e00	; 0x1e00 <__umulhisi3>
    1e22:	a5 9f       	mul	r26, r21
    1e24:	90 0d       	add	r25, r0
    1e26:	b4 9f       	mul	r27, r20
    1e28:	90 0d       	add	r25, r0
    1e2a:	a4 9f       	mul	r26, r20
    1e2c:	80 0d       	add	r24, r0
    1e2e:	91 1d       	adc	r25, r1
    1e30:	11 24       	eor	r1, r1
    1e32:	08 95       	ret

00001e34 <dtostrf>:
    1e34:	ef 92       	push	r14
    1e36:	0f 93       	push	r16
    1e38:	1f 93       	push	r17
    1e3a:	cf 93       	push	r28
    1e3c:	df 93       	push	r29
    1e3e:	e8 01       	movw	r28, r16
    1e40:	47 fd       	sbrc	r20, 7
    1e42:	02 c0       	rjmp	.+4      	; 0x1e48 <dtostrf+0x14>
    1e44:	34 e0       	ldi	r19, 0x04	; 4
    1e46:	01 c0       	rjmp	.+2      	; 0x1e4a <dtostrf+0x16>
    1e48:	34 e1       	ldi	r19, 0x14	; 20
    1e4a:	e4 2f       	mov	r30, r20
    1e4c:	44 0f       	add	r20, r20
    1e4e:	ff 0b       	sbc	r31, r31
    1e50:	f7 ff       	sbrs	r31, 7
    1e52:	03 c0       	rjmp	.+6      	; 0x1e5a <dtostrf+0x26>
    1e54:	f1 95       	neg	r31
    1e56:	e1 95       	neg	r30
    1e58:	f1 09       	sbc	r31, r1
    1e5a:	e3 2e       	mov	r14, r19
    1e5c:	02 2f       	mov	r16, r18
    1e5e:	2e 2f       	mov	r18, r30
    1e60:	ae 01       	movw	r20, r28
    1e62:	0e 94 2f 11 	call	0x225e	; 0x225e <dtoa_prf>
    1e66:	ce 01       	movw	r24, r28
    1e68:	df 91       	pop	r29
    1e6a:	cf 91       	pop	r28
    1e6c:	1f 91       	pop	r17
    1e6e:	0f 91       	pop	r16
    1e70:	ef 90       	pop	r14
    1e72:	08 95       	ret

00001e74 <sprintf>:
    1e74:	ae e0       	ldi	r26, 0x0E	; 14
    1e76:	b0 e0       	ldi	r27, 0x00	; 0
    1e78:	e0 e4       	ldi	r30, 0x40	; 64
    1e7a:	ff e0       	ldi	r31, 0x0F	; 15
    1e7c:	0c 94 4f 14 	jmp	0x289e	; 0x289e <__prologue_saves__+0x1c>
    1e80:	0d 89       	ldd	r16, Y+21	; 0x15
    1e82:	1e 89       	ldd	r17, Y+22	; 0x16
    1e84:	86 e0       	ldi	r24, 0x06	; 6
    1e86:	8c 83       	std	Y+4, r24	; 0x04
    1e88:	1a 83       	std	Y+2, r17	; 0x02
    1e8a:	09 83       	std	Y+1, r16	; 0x01
    1e8c:	8f ef       	ldi	r24, 0xFF	; 255
    1e8e:	9f e7       	ldi	r25, 0x7F	; 127
    1e90:	9e 83       	std	Y+6, r25	; 0x06
    1e92:	8d 83       	std	Y+5, r24	; 0x05
    1e94:	ae 01       	movw	r20, r28
    1e96:	47 5e       	subi	r20, 0xE7	; 231
    1e98:	5f 4f       	sbci	r21, 0xFF	; 255
    1e9a:	6f 89       	ldd	r22, Y+23	; 0x17
    1e9c:	78 8d       	ldd	r23, Y+24	; 0x18
    1e9e:	ce 01       	movw	r24, r28
    1ea0:	01 96       	adiw	r24, 0x01	; 1
    1ea2:	0e 94 5d 0f 	call	0x1eba	; 0x1eba <vfprintf>
    1ea6:	2f 81       	ldd	r18, Y+7	; 0x07
    1ea8:	38 85       	ldd	r19, Y+8	; 0x08
    1eaa:	f8 01       	movw	r30, r16
    1eac:	e2 0f       	add	r30, r18
    1eae:	f3 1f       	adc	r31, r19
    1eb0:	10 82       	st	Z, r1
    1eb2:	2e 96       	adiw	r28, 0x0e	; 14
    1eb4:	e4 e0       	ldi	r30, 0x04	; 4
    1eb6:	0c 94 6b 14 	jmp	0x28d6	; 0x28d6 <__epilogue_restores__+0x1c>

00001eba <vfprintf>:
    1eba:	ac e0       	ldi	r26, 0x0C	; 12
    1ebc:	b0 e0       	ldi	r27, 0x00	; 0
    1ebe:	e3 e6       	ldi	r30, 0x63	; 99
    1ec0:	ff e0       	ldi	r31, 0x0F	; 15
    1ec2:	0c 94 41 14 	jmp	0x2882	; 0x2882 <__prologue_saves__>
    1ec6:	7c 01       	movw	r14, r24
    1ec8:	6b 01       	movw	r12, r22
    1eca:	8a 01       	movw	r16, r20
    1ecc:	fc 01       	movw	r30, r24
    1ece:	17 82       	std	Z+7, r1	; 0x07
    1ed0:	16 82       	std	Z+6, r1	; 0x06
    1ed2:	83 81       	ldd	r24, Z+3	; 0x03
    1ed4:	81 ff       	sbrs	r24, 1
    1ed6:	bd c1       	rjmp	.+890    	; 0x2252 <vfprintf+0x398>
    1ed8:	ce 01       	movw	r24, r28
    1eda:	01 96       	adiw	r24, 0x01	; 1
    1edc:	4c 01       	movw	r8, r24
    1ede:	f7 01       	movw	r30, r14
    1ee0:	93 81       	ldd	r25, Z+3	; 0x03
    1ee2:	f6 01       	movw	r30, r12
    1ee4:	93 fd       	sbrc	r25, 3
    1ee6:	85 91       	lpm	r24, Z+
    1ee8:	93 ff       	sbrs	r25, 3
    1eea:	81 91       	ld	r24, Z+
    1eec:	6f 01       	movw	r12, r30
    1eee:	88 23       	and	r24, r24
    1ef0:	09 f4       	brne	.+2      	; 0x1ef4 <vfprintf+0x3a>
    1ef2:	ab c1       	rjmp	.+854    	; 0x224a <vfprintf+0x390>
    1ef4:	85 32       	cpi	r24, 0x25	; 37
    1ef6:	39 f4       	brne	.+14     	; 0x1f06 <vfprintf+0x4c>
    1ef8:	93 fd       	sbrc	r25, 3
    1efa:	85 91       	lpm	r24, Z+
    1efc:	93 ff       	sbrs	r25, 3
    1efe:	81 91       	ld	r24, Z+
    1f00:	6f 01       	movw	r12, r30
    1f02:	85 32       	cpi	r24, 0x25	; 37
    1f04:	29 f4       	brne	.+10     	; 0x1f10 <vfprintf+0x56>
    1f06:	b7 01       	movw	r22, r14
    1f08:	90 e0       	ldi	r25, 0x00	; 0
    1f0a:	0e 94 ab 13 	call	0x2756	; 0x2756 <fputc>
    1f0e:	e7 cf       	rjmp	.-50     	; 0x1ede <vfprintf+0x24>
    1f10:	51 2c       	mov	r5, r1
    1f12:	31 2c       	mov	r3, r1
    1f14:	20 e0       	ldi	r18, 0x00	; 0
    1f16:	20 32       	cpi	r18, 0x20	; 32
    1f18:	a0 f4       	brcc	.+40     	; 0x1f42 <vfprintf+0x88>
    1f1a:	8b 32       	cpi	r24, 0x2B	; 43
    1f1c:	69 f0       	breq	.+26     	; 0x1f38 <vfprintf+0x7e>
    1f1e:	30 f4       	brcc	.+12     	; 0x1f2c <vfprintf+0x72>
    1f20:	80 32       	cpi	r24, 0x20	; 32
    1f22:	59 f0       	breq	.+22     	; 0x1f3a <vfprintf+0x80>
    1f24:	83 32       	cpi	r24, 0x23	; 35
    1f26:	69 f4       	brne	.+26     	; 0x1f42 <vfprintf+0x88>
    1f28:	20 61       	ori	r18, 0x10	; 16
    1f2a:	2c c0       	rjmp	.+88     	; 0x1f84 <vfprintf+0xca>
    1f2c:	8d 32       	cpi	r24, 0x2D	; 45
    1f2e:	39 f0       	breq	.+14     	; 0x1f3e <vfprintf+0x84>
    1f30:	80 33       	cpi	r24, 0x30	; 48
    1f32:	39 f4       	brne	.+14     	; 0x1f42 <vfprintf+0x88>
    1f34:	21 60       	ori	r18, 0x01	; 1
    1f36:	26 c0       	rjmp	.+76     	; 0x1f84 <vfprintf+0xca>
    1f38:	22 60       	ori	r18, 0x02	; 2
    1f3a:	24 60       	ori	r18, 0x04	; 4
    1f3c:	23 c0       	rjmp	.+70     	; 0x1f84 <vfprintf+0xca>
    1f3e:	28 60       	ori	r18, 0x08	; 8
    1f40:	21 c0       	rjmp	.+66     	; 0x1f84 <vfprintf+0xca>
    1f42:	27 fd       	sbrc	r18, 7
    1f44:	27 c0       	rjmp	.+78     	; 0x1f94 <vfprintf+0xda>
    1f46:	30 ed       	ldi	r19, 0xD0	; 208
    1f48:	38 0f       	add	r19, r24
    1f4a:	3a 30       	cpi	r19, 0x0A	; 10
    1f4c:	78 f4       	brcc	.+30     	; 0x1f6c <vfprintf+0xb2>
    1f4e:	26 ff       	sbrs	r18, 6
    1f50:	06 c0       	rjmp	.+12     	; 0x1f5e <vfprintf+0xa4>
    1f52:	fa e0       	ldi	r31, 0x0A	; 10
    1f54:	5f 9e       	mul	r5, r31
    1f56:	30 0d       	add	r19, r0
    1f58:	11 24       	eor	r1, r1
    1f5a:	53 2e       	mov	r5, r19
    1f5c:	13 c0       	rjmp	.+38     	; 0x1f84 <vfprintf+0xca>
    1f5e:	8a e0       	ldi	r24, 0x0A	; 10
    1f60:	38 9e       	mul	r3, r24
    1f62:	30 0d       	add	r19, r0
    1f64:	11 24       	eor	r1, r1
    1f66:	33 2e       	mov	r3, r19
    1f68:	20 62       	ori	r18, 0x20	; 32
    1f6a:	0c c0       	rjmp	.+24     	; 0x1f84 <vfprintf+0xca>
    1f6c:	8e 32       	cpi	r24, 0x2E	; 46
    1f6e:	21 f4       	brne	.+8      	; 0x1f78 <vfprintf+0xbe>
    1f70:	26 fd       	sbrc	r18, 6
    1f72:	6b c1       	rjmp	.+726    	; 0x224a <vfprintf+0x390>
    1f74:	20 64       	ori	r18, 0x40	; 64
    1f76:	06 c0       	rjmp	.+12     	; 0x1f84 <vfprintf+0xca>
    1f78:	8c 36       	cpi	r24, 0x6C	; 108
    1f7a:	11 f4       	brne	.+4      	; 0x1f80 <vfprintf+0xc6>
    1f7c:	20 68       	ori	r18, 0x80	; 128
    1f7e:	02 c0       	rjmp	.+4      	; 0x1f84 <vfprintf+0xca>
    1f80:	88 36       	cpi	r24, 0x68	; 104
    1f82:	41 f4       	brne	.+16     	; 0x1f94 <vfprintf+0xda>
    1f84:	f6 01       	movw	r30, r12
    1f86:	93 fd       	sbrc	r25, 3
    1f88:	85 91       	lpm	r24, Z+
    1f8a:	93 ff       	sbrs	r25, 3
    1f8c:	81 91       	ld	r24, Z+
    1f8e:	6f 01       	movw	r12, r30
    1f90:	81 11       	cpse	r24, r1
    1f92:	c1 cf       	rjmp	.-126    	; 0x1f16 <vfprintf+0x5c>
    1f94:	98 2f       	mov	r25, r24
    1f96:	9f 7d       	andi	r25, 0xDF	; 223
    1f98:	95 54       	subi	r25, 0x45	; 69
    1f9a:	93 30       	cpi	r25, 0x03	; 3
    1f9c:	28 f4       	brcc	.+10     	; 0x1fa8 <vfprintf+0xee>
    1f9e:	0c 5f       	subi	r16, 0xFC	; 252
    1fa0:	1f 4f       	sbci	r17, 0xFF	; 255
    1fa2:	ff e3       	ldi	r31, 0x3F	; 63
    1fa4:	f9 83       	std	Y+1, r31	; 0x01
    1fa6:	0d c0       	rjmp	.+26     	; 0x1fc2 <vfprintf+0x108>
    1fa8:	83 36       	cpi	r24, 0x63	; 99
    1faa:	31 f0       	breq	.+12     	; 0x1fb8 <vfprintf+0xfe>
    1fac:	83 37       	cpi	r24, 0x73	; 115
    1fae:	71 f0       	breq	.+28     	; 0x1fcc <vfprintf+0x112>
    1fb0:	83 35       	cpi	r24, 0x53	; 83
    1fb2:	09 f0       	breq	.+2      	; 0x1fb6 <vfprintf+0xfc>
    1fb4:	5b c0       	rjmp	.+182    	; 0x206c <vfprintf+0x1b2>
    1fb6:	22 c0       	rjmp	.+68     	; 0x1ffc <vfprintf+0x142>
    1fb8:	f8 01       	movw	r30, r16
    1fba:	80 81       	ld	r24, Z
    1fbc:	89 83       	std	Y+1, r24	; 0x01
    1fbe:	0e 5f       	subi	r16, 0xFE	; 254
    1fc0:	1f 4f       	sbci	r17, 0xFF	; 255
    1fc2:	44 24       	eor	r4, r4
    1fc4:	43 94       	inc	r4
    1fc6:	51 2c       	mov	r5, r1
    1fc8:	54 01       	movw	r10, r8
    1fca:	15 c0       	rjmp	.+42     	; 0x1ff6 <vfprintf+0x13c>
    1fcc:	38 01       	movw	r6, r16
    1fce:	f2 e0       	ldi	r31, 0x02	; 2
    1fd0:	6f 0e       	add	r6, r31
    1fd2:	71 1c       	adc	r7, r1
    1fd4:	f8 01       	movw	r30, r16
    1fd6:	a0 80       	ld	r10, Z
    1fd8:	b1 80       	ldd	r11, Z+1	; 0x01
    1fda:	26 ff       	sbrs	r18, 6
    1fdc:	03 c0       	rjmp	.+6      	; 0x1fe4 <vfprintf+0x12a>
    1fde:	65 2d       	mov	r22, r5
    1fe0:	70 e0       	ldi	r23, 0x00	; 0
    1fe2:	02 c0       	rjmp	.+4      	; 0x1fe8 <vfprintf+0x12e>
    1fe4:	6f ef       	ldi	r22, 0xFF	; 255
    1fe6:	7f ef       	ldi	r23, 0xFF	; 255
    1fe8:	c5 01       	movw	r24, r10
    1fea:	2c 87       	std	Y+12, r18	; 0x0c
    1fec:	0e 94 a0 13 	call	0x2740	; 0x2740 <strnlen>
    1ff0:	2c 01       	movw	r4, r24
    1ff2:	83 01       	movw	r16, r6
    1ff4:	2c 85       	ldd	r18, Y+12	; 0x0c
    1ff6:	2f 77       	andi	r18, 0x7F	; 127
    1ff8:	22 2e       	mov	r2, r18
    1ffa:	17 c0       	rjmp	.+46     	; 0x202a <vfprintf+0x170>
    1ffc:	38 01       	movw	r6, r16
    1ffe:	f2 e0       	ldi	r31, 0x02	; 2
    2000:	6f 0e       	add	r6, r31
    2002:	71 1c       	adc	r7, r1
    2004:	f8 01       	movw	r30, r16
    2006:	a0 80       	ld	r10, Z
    2008:	b1 80       	ldd	r11, Z+1	; 0x01
    200a:	26 ff       	sbrs	r18, 6
    200c:	03 c0       	rjmp	.+6      	; 0x2014 <vfprintf+0x15a>
    200e:	65 2d       	mov	r22, r5
    2010:	70 e0       	ldi	r23, 0x00	; 0
    2012:	02 c0       	rjmp	.+4      	; 0x2018 <vfprintf+0x15e>
    2014:	6f ef       	ldi	r22, 0xFF	; 255
    2016:	7f ef       	ldi	r23, 0xFF	; 255
    2018:	c5 01       	movw	r24, r10
    201a:	2c 87       	std	Y+12, r18	; 0x0c
    201c:	0e 94 95 13 	call	0x272a	; 0x272a <strnlen_P>
    2020:	2c 01       	movw	r4, r24
    2022:	2c 85       	ldd	r18, Y+12	; 0x0c
    2024:	20 68       	ori	r18, 0x80	; 128
    2026:	22 2e       	mov	r2, r18
    2028:	83 01       	movw	r16, r6
    202a:	23 fc       	sbrc	r2, 3
    202c:	1b c0       	rjmp	.+54     	; 0x2064 <vfprintf+0x1aa>
    202e:	83 2d       	mov	r24, r3
    2030:	90 e0       	ldi	r25, 0x00	; 0
    2032:	48 16       	cp	r4, r24
    2034:	59 06       	cpc	r5, r25
    2036:	b0 f4       	brcc	.+44     	; 0x2064 <vfprintf+0x1aa>
    2038:	b7 01       	movw	r22, r14
    203a:	80 e2       	ldi	r24, 0x20	; 32
    203c:	90 e0       	ldi	r25, 0x00	; 0
    203e:	0e 94 ab 13 	call	0x2756	; 0x2756 <fputc>
    2042:	3a 94       	dec	r3
    2044:	f4 cf       	rjmp	.-24     	; 0x202e <vfprintf+0x174>
    2046:	f5 01       	movw	r30, r10
    2048:	27 fc       	sbrc	r2, 7
    204a:	85 91       	lpm	r24, Z+
    204c:	27 fe       	sbrs	r2, 7
    204e:	81 91       	ld	r24, Z+
    2050:	5f 01       	movw	r10, r30
    2052:	b7 01       	movw	r22, r14
    2054:	90 e0       	ldi	r25, 0x00	; 0
    2056:	0e 94 ab 13 	call	0x2756	; 0x2756 <fputc>
    205a:	31 10       	cpse	r3, r1
    205c:	3a 94       	dec	r3
    205e:	f1 e0       	ldi	r31, 0x01	; 1
    2060:	4f 1a       	sub	r4, r31
    2062:	51 08       	sbc	r5, r1
    2064:	41 14       	cp	r4, r1
    2066:	51 04       	cpc	r5, r1
    2068:	71 f7       	brne	.-36     	; 0x2046 <vfprintf+0x18c>
    206a:	e5 c0       	rjmp	.+458    	; 0x2236 <vfprintf+0x37c>
    206c:	84 36       	cpi	r24, 0x64	; 100
    206e:	11 f0       	breq	.+4      	; 0x2074 <vfprintf+0x1ba>
    2070:	89 36       	cpi	r24, 0x69	; 105
    2072:	39 f5       	brne	.+78     	; 0x20c2 <vfprintf+0x208>
    2074:	f8 01       	movw	r30, r16
    2076:	27 ff       	sbrs	r18, 7
    2078:	07 c0       	rjmp	.+14     	; 0x2088 <vfprintf+0x1ce>
    207a:	60 81       	ld	r22, Z
    207c:	71 81       	ldd	r23, Z+1	; 0x01
    207e:	82 81       	ldd	r24, Z+2	; 0x02
    2080:	93 81       	ldd	r25, Z+3	; 0x03
    2082:	0c 5f       	subi	r16, 0xFC	; 252
    2084:	1f 4f       	sbci	r17, 0xFF	; 255
    2086:	08 c0       	rjmp	.+16     	; 0x2098 <vfprintf+0x1de>
    2088:	60 81       	ld	r22, Z
    208a:	71 81       	ldd	r23, Z+1	; 0x01
    208c:	07 2e       	mov	r0, r23
    208e:	00 0c       	add	r0, r0
    2090:	88 0b       	sbc	r24, r24
    2092:	99 0b       	sbc	r25, r25
    2094:	0e 5f       	subi	r16, 0xFE	; 254
    2096:	1f 4f       	sbci	r17, 0xFF	; 255
    2098:	2f 76       	andi	r18, 0x6F	; 111
    209a:	72 2e       	mov	r7, r18
    209c:	97 ff       	sbrs	r25, 7
    209e:	09 c0       	rjmp	.+18     	; 0x20b2 <vfprintf+0x1f8>
    20a0:	90 95       	com	r25
    20a2:	80 95       	com	r24
    20a4:	70 95       	com	r23
    20a6:	61 95       	neg	r22
    20a8:	7f 4f       	sbci	r23, 0xFF	; 255
    20aa:	8f 4f       	sbci	r24, 0xFF	; 255
    20ac:	9f 4f       	sbci	r25, 0xFF	; 255
    20ae:	20 68       	ori	r18, 0x80	; 128
    20b0:	72 2e       	mov	r7, r18
    20b2:	2a e0       	ldi	r18, 0x0A	; 10
    20b4:	30 e0       	ldi	r19, 0x00	; 0
    20b6:	a4 01       	movw	r20, r8
    20b8:	0e 94 e3 13 	call	0x27c6	; 0x27c6 <__ultoa_invert>
    20bc:	a8 2e       	mov	r10, r24
    20be:	a8 18       	sub	r10, r8
    20c0:	44 c0       	rjmp	.+136    	; 0x214a <vfprintf+0x290>
    20c2:	85 37       	cpi	r24, 0x75	; 117
    20c4:	29 f4       	brne	.+10     	; 0x20d0 <vfprintf+0x216>
    20c6:	2f 7e       	andi	r18, 0xEF	; 239
    20c8:	b2 2e       	mov	r11, r18
    20ca:	2a e0       	ldi	r18, 0x0A	; 10
    20cc:	30 e0       	ldi	r19, 0x00	; 0
    20ce:	25 c0       	rjmp	.+74     	; 0x211a <vfprintf+0x260>
    20d0:	f2 2f       	mov	r31, r18
    20d2:	f9 7f       	andi	r31, 0xF9	; 249
    20d4:	bf 2e       	mov	r11, r31
    20d6:	8f 36       	cpi	r24, 0x6F	; 111
    20d8:	c1 f0       	breq	.+48     	; 0x210a <vfprintf+0x250>
    20da:	18 f4       	brcc	.+6      	; 0x20e2 <vfprintf+0x228>
    20dc:	88 35       	cpi	r24, 0x58	; 88
    20de:	79 f0       	breq	.+30     	; 0x20fe <vfprintf+0x244>
    20e0:	b4 c0       	rjmp	.+360    	; 0x224a <vfprintf+0x390>
    20e2:	80 37       	cpi	r24, 0x70	; 112
    20e4:	19 f0       	breq	.+6      	; 0x20ec <vfprintf+0x232>
    20e6:	88 37       	cpi	r24, 0x78	; 120
    20e8:	21 f0       	breq	.+8      	; 0x20f2 <vfprintf+0x238>
    20ea:	af c0       	rjmp	.+350    	; 0x224a <vfprintf+0x390>
    20ec:	2f 2f       	mov	r18, r31
    20ee:	20 61       	ori	r18, 0x10	; 16
    20f0:	b2 2e       	mov	r11, r18
    20f2:	b4 fe       	sbrs	r11, 4
    20f4:	0d c0       	rjmp	.+26     	; 0x2110 <vfprintf+0x256>
    20f6:	8b 2d       	mov	r24, r11
    20f8:	84 60       	ori	r24, 0x04	; 4
    20fa:	b8 2e       	mov	r11, r24
    20fc:	09 c0       	rjmp	.+18     	; 0x2110 <vfprintf+0x256>
    20fe:	24 ff       	sbrs	r18, 4
    2100:	0a c0       	rjmp	.+20     	; 0x2116 <vfprintf+0x25c>
    2102:	9f 2f       	mov	r25, r31
    2104:	96 60       	ori	r25, 0x06	; 6
    2106:	b9 2e       	mov	r11, r25
    2108:	06 c0       	rjmp	.+12     	; 0x2116 <vfprintf+0x25c>
    210a:	28 e0       	ldi	r18, 0x08	; 8
    210c:	30 e0       	ldi	r19, 0x00	; 0
    210e:	05 c0       	rjmp	.+10     	; 0x211a <vfprintf+0x260>
    2110:	20 e1       	ldi	r18, 0x10	; 16
    2112:	30 e0       	ldi	r19, 0x00	; 0
    2114:	02 c0       	rjmp	.+4      	; 0x211a <vfprintf+0x260>
    2116:	20 e1       	ldi	r18, 0x10	; 16
    2118:	32 e0       	ldi	r19, 0x02	; 2
    211a:	f8 01       	movw	r30, r16
    211c:	b7 fe       	sbrs	r11, 7
    211e:	07 c0       	rjmp	.+14     	; 0x212e <vfprintf+0x274>
    2120:	60 81       	ld	r22, Z
    2122:	71 81       	ldd	r23, Z+1	; 0x01
    2124:	82 81       	ldd	r24, Z+2	; 0x02
    2126:	93 81       	ldd	r25, Z+3	; 0x03
    2128:	0c 5f       	subi	r16, 0xFC	; 252
    212a:	1f 4f       	sbci	r17, 0xFF	; 255
    212c:	06 c0       	rjmp	.+12     	; 0x213a <vfprintf+0x280>
    212e:	60 81       	ld	r22, Z
    2130:	71 81       	ldd	r23, Z+1	; 0x01
    2132:	80 e0       	ldi	r24, 0x00	; 0
    2134:	90 e0       	ldi	r25, 0x00	; 0
    2136:	0e 5f       	subi	r16, 0xFE	; 254
    2138:	1f 4f       	sbci	r17, 0xFF	; 255
    213a:	a4 01       	movw	r20, r8
    213c:	0e 94 e3 13 	call	0x27c6	; 0x27c6 <__ultoa_invert>
    2140:	a8 2e       	mov	r10, r24
    2142:	a8 18       	sub	r10, r8
    2144:	fb 2d       	mov	r31, r11
    2146:	ff 77       	andi	r31, 0x7F	; 127
    2148:	7f 2e       	mov	r7, r31
    214a:	76 fe       	sbrs	r7, 6
    214c:	0b c0       	rjmp	.+22     	; 0x2164 <vfprintf+0x2aa>
    214e:	37 2d       	mov	r19, r7
    2150:	3e 7f       	andi	r19, 0xFE	; 254
    2152:	a5 14       	cp	r10, r5
    2154:	50 f4       	brcc	.+20     	; 0x216a <vfprintf+0x2b0>
    2156:	74 fe       	sbrs	r7, 4
    2158:	0a c0       	rjmp	.+20     	; 0x216e <vfprintf+0x2b4>
    215a:	72 fc       	sbrc	r7, 2
    215c:	08 c0       	rjmp	.+16     	; 0x216e <vfprintf+0x2b4>
    215e:	37 2d       	mov	r19, r7
    2160:	3e 7e       	andi	r19, 0xEE	; 238
    2162:	05 c0       	rjmp	.+10     	; 0x216e <vfprintf+0x2b4>
    2164:	ba 2c       	mov	r11, r10
    2166:	37 2d       	mov	r19, r7
    2168:	03 c0       	rjmp	.+6      	; 0x2170 <vfprintf+0x2b6>
    216a:	ba 2c       	mov	r11, r10
    216c:	01 c0       	rjmp	.+2      	; 0x2170 <vfprintf+0x2b6>
    216e:	b5 2c       	mov	r11, r5
    2170:	34 ff       	sbrs	r19, 4
    2172:	0d c0       	rjmp	.+26     	; 0x218e <vfprintf+0x2d4>
    2174:	fe 01       	movw	r30, r28
    2176:	ea 0d       	add	r30, r10
    2178:	f1 1d       	adc	r31, r1
    217a:	80 81       	ld	r24, Z
    217c:	80 33       	cpi	r24, 0x30	; 48
    217e:	11 f4       	brne	.+4      	; 0x2184 <vfprintf+0x2ca>
    2180:	39 7e       	andi	r19, 0xE9	; 233
    2182:	09 c0       	rjmp	.+18     	; 0x2196 <vfprintf+0x2dc>
    2184:	32 ff       	sbrs	r19, 2
    2186:	06 c0       	rjmp	.+12     	; 0x2194 <vfprintf+0x2da>
    2188:	b3 94       	inc	r11
    218a:	b3 94       	inc	r11
    218c:	04 c0       	rjmp	.+8      	; 0x2196 <vfprintf+0x2dc>
    218e:	83 2f       	mov	r24, r19
    2190:	86 78       	andi	r24, 0x86	; 134
    2192:	09 f0       	breq	.+2      	; 0x2196 <vfprintf+0x2dc>
    2194:	b3 94       	inc	r11
    2196:	33 fd       	sbrc	r19, 3
    2198:	13 c0       	rjmp	.+38     	; 0x21c0 <vfprintf+0x306>
    219a:	30 ff       	sbrs	r19, 0
    219c:	06 c0       	rjmp	.+12     	; 0x21aa <vfprintf+0x2f0>
    219e:	5a 2c       	mov	r5, r10
    21a0:	b3 14       	cp	r11, r3
    21a2:	18 f4       	brcc	.+6      	; 0x21aa <vfprintf+0x2f0>
    21a4:	53 0c       	add	r5, r3
    21a6:	5b 18       	sub	r5, r11
    21a8:	b3 2c       	mov	r11, r3
    21aa:	b3 14       	cp	r11, r3
    21ac:	68 f4       	brcc	.+26     	; 0x21c8 <vfprintf+0x30e>
    21ae:	b7 01       	movw	r22, r14
    21b0:	80 e2       	ldi	r24, 0x20	; 32
    21b2:	90 e0       	ldi	r25, 0x00	; 0
    21b4:	3c 87       	std	Y+12, r19	; 0x0c
    21b6:	0e 94 ab 13 	call	0x2756	; 0x2756 <fputc>
    21ba:	b3 94       	inc	r11
    21bc:	3c 85       	ldd	r19, Y+12	; 0x0c
    21be:	f5 cf       	rjmp	.-22     	; 0x21aa <vfprintf+0x2f0>
    21c0:	b3 14       	cp	r11, r3
    21c2:	10 f4       	brcc	.+4      	; 0x21c8 <vfprintf+0x30e>
    21c4:	3b 18       	sub	r3, r11
    21c6:	01 c0       	rjmp	.+2      	; 0x21ca <vfprintf+0x310>
    21c8:	31 2c       	mov	r3, r1
    21ca:	34 ff       	sbrs	r19, 4
    21cc:	12 c0       	rjmp	.+36     	; 0x21f2 <vfprintf+0x338>
    21ce:	b7 01       	movw	r22, r14
    21d0:	80 e3       	ldi	r24, 0x30	; 48
    21d2:	90 e0       	ldi	r25, 0x00	; 0
    21d4:	3c 87       	std	Y+12, r19	; 0x0c
    21d6:	0e 94 ab 13 	call	0x2756	; 0x2756 <fputc>
    21da:	3c 85       	ldd	r19, Y+12	; 0x0c
    21dc:	32 ff       	sbrs	r19, 2
    21de:	17 c0       	rjmp	.+46     	; 0x220e <vfprintf+0x354>
    21e0:	31 fd       	sbrc	r19, 1
    21e2:	03 c0       	rjmp	.+6      	; 0x21ea <vfprintf+0x330>
    21e4:	88 e7       	ldi	r24, 0x78	; 120
    21e6:	90 e0       	ldi	r25, 0x00	; 0
    21e8:	02 c0       	rjmp	.+4      	; 0x21ee <vfprintf+0x334>
    21ea:	88 e5       	ldi	r24, 0x58	; 88
    21ec:	90 e0       	ldi	r25, 0x00	; 0
    21ee:	b7 01       	movw	r22, r14
    21f0:	0c c0       	rjmp	.+24     	; 0x220a <vfprintf+0x350>
    21f2:	83 2f       	mov	r24, r19
    21f4:	86 78       	andi	r24, 0x86	; 134
    21f6:	59 f0       	breq	.+22     	; 0x220e <vfprintf+0x354>
    21f8:	31 ff       	sbrs	r19, 1
    21fa:	02 c0       	rjmp	.+4      	; 0x2200 <vfprintf+0x346>
    21fc:	8b e2       	ldi	r24, 0x2B	; 43
    21fe:	01 c0       	rjmp	.+2      	; 0x2202 <vfprintf+0x348>
    2200:	80 e2       	ldi	r24, 0x20	; 32
    2202:	37 fd       	sbrc	r19, 7
    2204:	8d e2       	ldi	r24, 0x2D	; 45
    2206:	b7 01       	movw	r22, r14
    2208:	90 e0       	ldi	r25, 0x00	; 0
    220a:	0e 94 ab 13 	call	0x2756	; 0x2756 <fputc>
    220e:	a5 14       	cp	r10, r5
    2210:	38 f4       	brcc	.+14     	; 0x2220 <vfprintf+0x366>
    2212:	b7 01       	movw	r22, r14
    2214:	80 e3       	ldi	r24, 0x30	; 48
    2216:	90 e0       	ldi	r25, 0x00	; 0
    2218:	0e 94 ab 13 	call	0x2756	; 0x2756 <fputc>
    221c:	5a 94       	dec	r5
    221e:	f7 cf       	rjmp	.-18     	; 0x220e <vfprintf+0x354>
    2220:	aa 94       	dec	r10
    2222:	f4 01       	movw	r30, r8
    2224:	ea 0d       	add	r30, r10
    2226:	f1 1d       	adc	r31, r1
    2228:	80 81       	ld	r24, Z
    222a:	b7 01       	movw	r22, r14
    222c:	90 e0       	ldi	r25, 0x00	; 0
    222e:	0e 94 ab 13 	call	0x2756	; 0x2756 <fputc>
    2232:	a1 10       	cpse	r10, r1
    2234:	f5 cf       	rjmp	.-22     	; 0x2220 <vfprintf+0x366>
    2236:	33 20       	and	r3, r3
    2238:	09 f4       	brne	.+2      	; 0x223c <vfprintf+0x382>
    223a:	51 ce       	rjmp	.-862    	; 0x1ede <vfprintf+0x24>
    223c:	b7 01       	movw	r22, r14
    223e:	80 e2       	ldi	r24, 0x20	; 32
    2240:	90 e0       	ldi	r25, 0x00	; 0
    2242:	0e 94 ab 13 	call	0x2756	; 0x2756 <fputc>
    2246:	3a 94       	dec	r3
    2248:	f6 cf       	rjmp	.-20     	; 0x2236 <vfprintf+0x37c>
    224a:	f7 01       	movw	r30, r14
    224c:	86 81       	ldd	r24, Z+6	; 0x06
    224e:	97 81       	ldd	r25, Z+7	; 0x07
    2250:	02 c0       	rjmp	.+4      	; 0x2256 <vfprintf+0x39c>
    2252:	8f ef       	ldi	r24, 0xFF	; 255
    2254:	9f ef       	ldi	r25, 0xFF	; 255
    2256:	2c 96       	adiw	r28, 0x0c	; 12
    2258:	e2 e1       	ldi	r30, 0x12	; 18
    225a:	0c 94 5d 14 	jmp	0x28ba	; 0x28ba <__epilogue_restores__>

0000225e <dtoa_prf>:
    225e:	4f 92       	push	r4
    2260:	5f 92       	push	r5
    2262:	6f 92       	push	r6
    2264:	7f 92       	push	r7
    2266:	9f 92       	push	r9
    2268:	af 92       	push	r10
    226a:	bf 92       	push	r11
    226c:	cf 92       	push	r12
    226e:	df 92       	push	r13
    2270:	ef 92       	push	r14
    2272:	ff 92       	push	r15
    2274:	0f 93       	push	r16
    2276:	1f 93       	push	r17
    2278:	cf 93       	push	r28
    227a:	df 93       	push	r29
    227c:	cd b7       	in	r28, 0x3d	; 61
    227e:	de b7       	in	r29, 0x3e	; 62
    2280:	29 97       	sbiw	r28, 0x09	; 9
    2282:	0f b6       	in	r0, 0x3f	; 63
    2284:	f8 94       	cli
    2286:	de bf       	out	0x3e, r29	; 62
    2288:	0f be       	out	0x3f, r0	; 63
    228a:	cd bf       	out	0x3d, r28	; 61
    228c:	6a 01       	movw	r12, r20
    228e:	12 2f       	mov	r17, r18
    2290:	b0 2e       	mov	r11, r16
    2292:	2b e3       	ldi	r18, 0x3B	; 59
    2294:	20 17       	cp	r18, r16
    2296:	20 f0       	brcs	.+8      	; 0x22a0 <dtoa_prf+0x42>
    2298:	ff 24       	eor	r15, r15
    229a:	f3 94       	inc	r15
    229c:	f0 0e       	add	r15, r16
    229e:	02 c0       	rjmp	.+4      	; 0x22a4 <dtoa_prf+0x46>
    22a0:	bc e3       	ldi	r27, 0x3C	; 60
    22a2:	fb 2e       	mov	r15, r27
    22a4:	0f 2d       	mov	r16, r15
    22a6:	27 e0       	ldi	r18, 0x07	; 7
    22a8:	ae 01       	movw	r20, r28
    22aa:	4f 5f       	subi	r20, 0xFF	; 255
    22ac:	5f 4f       	sbci	r21, 0xFF	; 255
    22ae:	0e 94 bd 12 	call	0x257a	; 0x257a <__ftoa_engine>
    22b2:	ac 01       	movw	r20, r24
    22b4:	89 81       	ldd	r24, Y+1	; 0x01
    22b6:	98 2f       	mov	r25, r24
    22b8:	99 70       	andi	r25, 0x09	; 9
    22ba:	91 30       	cpi	r25, 0x01	; 1
    22bc:	31 f0       	breq	.+12     	; 0x22ca <dtoa_prf+0x6c>
    22be:	e1 fc       	sbrc	r14, 1
    22c0:	06 c0       	rjmp	.+12     	; 0x22ce <dtoa_prf+0x70>
    22c2:	e0 fe       	sbrs	r14, 0
    22c4:	06 c0       	rjmp	.+12     	; 0x22d2 <dtoa_prf+0x74>
    22c6:	90 e2       	ldi	r25, 0x20	; 32
    22c8:	05 c0       	rjmp	.+10     	; 0x22d4 <dtoa_prf+0x76>
    22ca:	9d e2       	ldi	r25, 0x2D	; 45
    22cc:	03 c0       	rjmp	.+6      	; 0x22d4 <dtoa_prf+0x76>
    22ce:	9b e2       	ldi	r25, 0x2B	; 43
    22d0:	01 c0       	rjmp	.+2      	; 0x22d4 <dtoa_prf+0x76>
    22d2:	90 e0       	ldi	r25, 0x00	; 0
    22d4:	ee 2d       	mov	r30, r14
    22d6:	e0 71       	andi	r30, 0x10	; 16
    22d8:	83 ff       	sbrs	r24, 3
    22da:	3c c0       	rjmp	.+120    	; 0x2354 <dtoa_prf+0xf6>
    22dc:	91 11       	cpse	r25, r1
    22de:	02 c0       	rjmp	.+4      	; 0x22e4 <dtoa_prf+0x86>
    22e0:	83 e0       	ldi	r24, 0x03	; 3
    22e2:	01 c0       	rjmp	.+2      	; 0x22e6 <dtoa_prf+0x88>
    22e4:	84 e0       	ldi	r24, 0x04	; 4
    22e6:	81 17       	cp	r24, r17
    22e8:	18 f4       	brcc	.+6      	; 0x22f0 <dtoa_prf+0x92>
    22ea:	21 2f       	mov	r18, r17
    22ec:	28 1b       	sub	r18, r24
    22ee:	01 c0       	rjmp	.+2      	; 0x22f2 <dtoa_prf+0x94>
    22f0:	20 e0       	ldi	r18, 0x00	; 0
    22f2:	e1 11       	cpse	r30, r1
    22f4:	0b c0       	rjmp	.+22     	; 0x230c <dtoa_prf+0xae>
    22f6:	f6 01       	movw	r30, r12
    22f8:	82 2f       	mov	r24, r18
    22fa:	30 e2       	ldi	r19, 0x20	; 32
    22fc:	88 23       	and	r24, r24
    22fe:	19 f0       	breq	.+6      	; 0x2306 <dtoa_prf+0xa8>
    2300:	31 93       	st	Z+, r19
    2302:	81 50       	subi	r24, 0x01	; 1
    2304:	fb cf       	rjmp	.-10     	; 0x22fc <dtoa_prf+0x9e>
    2306:	c2 0e       	add	r12, r18
    2308:	d1 1c       	adc	r13, r1
    230a:	20 e0       	ldi	r18, 0x00	; 0
    230c:	99 23       	and	r25, r25
    230e:	29 f0       	breq	.+10     	; 0x231a <dtoa_prf+0xbc>
    2310:	d6 01       	movw	r26, r12
    2312:	9c 93       	st	X, r25
    2314:	f6 01       	movw	r30, r12
    2316:	31 96       	adiw	r30, 0x01	; 1
    2318:	6f 01       	movw	r12, r30
    231a:	c6 01       	movw	r24, r12
    231c:	03 96       	adiw	r24, 0x03	; 3
    231e:	e2 fe       	sbrs	r14, 2
    2320:	0a c0       	rjmp	.+20     	; 0x2336 <dtoa_prf+0xd8>
    2322:	3e e4       	ldi	r19, 0x4E	; 78
    2324:	d6 01       	movw	r26, r12
    2326:	3c 93       	st	X, r19
    2328:	41 e4       	ldi	r20, 0x41	; 65
    232a:	11 96       	adiw	r26, 0x01	; 1
    232c:	4c 93       	st	X, r20
    232e:	11 97       	sbiw	r26, 0x01	; 1
    2330:	12 96       	adiw	r26, 0x02	; 2
    2332:	3c 93       	st	X, r19
    2334:	06 c0       	rjmp	.+12     	; 0x2342 <dtoa_prf+0xe4>
    2336:	3e e6       	ldi	r19, 0x6E	; 110
    2338:	f6 01       	movw	r30, r12
    233a:	30 83       	st	Z, r19
    233c:	41 e6       	ldi	r20, 0x61	; 97
    233e:	41 83       	std	Z+1, r20	; 0x01
    2340:	32 83       	std	Z+2, r19	; 0x02
    2342:	fc 01       	movw	r30, r24
    2344:	32 2f       	mov	r19, r18
    2346:	40 e2       	ldi	r20, 0x20	; 32
    2348:	33 23       	and	r19, r19
    234a:	09 f4       	brne	.+2      	; 0x234e <dtoa_prf+0xf0>
    234c:	42 c0       	rjmp	.+132    	; 0x23d2 <dtoa_prf+0x174>
    234e:	41 93       	st	Z+, r20
    2350:	31 50       	subi	r19, 0x01	; 1
    2352:	fa cf       	rjmp	.-12     	; 0x2348 <dtoa_prf+0xea>
    2354:	82 ff       	sbrs	r24, 2
    2356:	44 c0       	rjmp	.+136    	; 0x23e0 <dtoa_prf+0x182>
    2358:	91 11       	cpse	r25, r1
    235a:	02 c0       	rjmp	.+4      	; 0x2360 <dtoa_prf+0x102>
    235c:	83 e0       	ldi	r24, 0x03	; 3
    235e:	01 c0       	rjmp	.+2      	; 0x2362 <dtoa_prf+0x104>
    2360:	84 e0       	ldi	r24, 0x04	; 4
    2362:	81 17       	cp	r24, r17
    2364:	18 f4       	brcc	.+6      	; 0x236c <dtoa_prf+0x10e>
    2366:	21 2f       	mov	r18, r17
    2368:	28 1b       	sub	r18, r24
    236a:	01 c0       	rjmp	.+2      	; 0x236e <dtoa_prf+0x110>
    236c:	20 e0       	ldi	r18, 0x00	; 0
    236e:	e1 11       	cpse	r30, r1
    2370:	0b c0       	rjmp	.+22     	; 0x2388 <dtoa_prf+0x12a>
    2372:	f6 01       	movw	r30, r12
    2374:	82 2f       	mov	r24, r18
    2376:	30 e2       	ldi	r19, 0x20	; 32
    2378:	88 23       	and	r24, r24
    237a:	19 f0       	breq	.+6      	; 0x2382 <dtoa_prf+0x124>
    237c:	31 93       	st	Z+, r19
    237e:	81 50       	subi	r24, 0x01	; 1
    2380:	fb cf       	rjmp	.-10     	; 0x2378 <dtoa_prf+0x11a>
    2382:	c2 0e       	add	r12, r18
    2384:	d1 1c       	adc	r13, r1
    2386:	20 e0       	ldi	r18, 0x00	; 0
    2388:	99 23       	and	r25, r25
    238a:	29 f0       	breq	.+10     	; 0x2396 <dtoa_prf+0x138>
    238c:	d6 01       	movw	r26, r12
    238e:	9c 93       	st	X, r25
    2390:	f6 01       	movw	r30, r12
    2392:	31 96       	adiw	r30, 0x01	; 1
    2394:	6f 01       	movw	r12, r30
    2396:	c6 01       	movw	r24, r12
    2398:	03 96       	adiw	r24, 0x03	; 3
    239a:	e2 fe       	sbrs	r14, 2
    239c:	0b c0       	rjmp	.+22     	; 0x23b4 <dtoa_prf+0x156>
    239e:	39 e4       	ldi	r19, 0x49	; 73
    23a0:	d6 01       	movw	r26, r12
    23a2:	3c 93       	st	X, r19
    23a4:	3e e4       	ldi	r19, 0x4E	; 78
    23a6:	11 96       	adiw	r26, 0x01	; 1
    23a8:	3c 93       	st	X, r19
    23aa:	11 97       	sbiw	r26, 0x01	; 1
    23ac:	36 e4       	ldi	r19, 0x46	; 70
    23ae:	12 96       	adiw	r26, 0x02	; 2
    23b0:	3c 93       	st	X, r19
    23b2:	07 c0       	rjmp	.+14     	; 0x23c2 <dtoa_prf+0x164>
    23b4:	39 e6       	ldi	r19, 0x69	; 105
    23b6:	f6 01       	movw	r30, r12
    23b8:	30 83       	st	Z, r19
    23ba:	3e e6       	ldi	r19, 0x6E	; 110
    23bc:	31 83       	std	Z+1, r19	; 0x01
    23be:	36 e6       	ldi	r19, 0x66	; 102
    23c0:	32 83       	std	Z+2, r19	; 0x02
    23c2:	fc 01       	movw	r30, r24
    23c4:	32 2f       	mov	r19, r18
    23c6:	40 e2       	ldi	r20, 0x20	; 32
    23c8:	33 23       	and	r19, r19
    23ca:	19 f0       	breq	.+6      	; 0x23d2 <dtoa_prf+0x174>
    23cc:	41 93       	st	Z+, r20
    23ce:	31 50       	subi	r19, 0x01	; 1
    23d0:	fb cf       	rjmp	.-10     	; 0x23c8 <dtoa_prf+0x16a>
    23d2:	fc 01       	movw	r30, r24
    23d4:	e2 0f       	add	r30, r18
    23d6:	f1 1d       	adc	r31, r1
    23d8:	10 82       	st	Z, r1
    23da:	8e ef       	ldi	r24, 0xFE	; 254
    23dc:	9f ef       	ldi	r25, 0xFF	; 255
    23de:	b7 c0       	rjmp	.+366    	; 0x254e <dtoa_prf+0x2f0>
    23e0:	f1 e0       	ldi	r31, 0x01	; 1
    23e2:	91 11       	cpse	r25, r1
    23e4:	01 c0       	rjmp	.+2      	; 0x23e8 <dtoa_prf+0x18a>
    23e6:	f0 e0       	ldi	r31, 0x00	; 0
    23e8:	6f 2f       	mov	r22, r31
    23ea:	70 e0       	ldi	r23, 0x00	; 0
    23ec:	14 16       	cp	r1, r20
    23ee:	15 06       	cpc	r1, r21
    23f0:	24 f4       	brge	.+8      	; 0x23fa <dtoa_prf+0x19c>
    23f2:	9a 01       	movw	r18, r20
    23f4:	2f 5f       	subi	r18, 0xFF	; 255
    23f6:	3f 4f       	sbci	r19, 0xFF	; 255
    23f8:	02 c0       	rjmp	.+4      	; 0x23fe <dtoa_prf+0x1a0>
    23fa:	21 e0       	ldi	r18, 0x01	; 1
    23fc:	30 e0       	ldi	r19, 0x00	; 0
    23fe:	26 0f       	add	r18, r22
    2400:	37 1f       	adc	r19, r23
    2402:	bb 20       	and	r11, r11
    2404:	29 f0       	breq	.+10     	; 0x2410 <dtoa_prf+0x1b2>
    2406:	6b 2d       	mov	r22, r11
    2408:	70 e0       	ldi	r23, 0x00	; 0
    240a:	6f 5f       	subi	r22, 0xFF	; 255
    240c:	7f 4f       	sbci	r23, 0xFF	; 255
    240e:	02 c0       	rjmp	.+4      	; 0x2414 <dtoa_prf+0x1b6>
    2410:	60 e0       	ldi	r22, 0x00	; 0
    2412:	70 e0       	ldi	r23, 0x00	; 0
    2414:	26 0f       	add	r18, r22
    2416:	37 1f       	adc	r19, r23
    2418:	61 2f       	mov	r22, r17
    241a:	70 e0       	ldi	r23, 0x00	; 0
    241c:	26 17       	cp	r18, r22
    241e:	37 07       	cpc	r19, r23
    2420:	1c f4       	brge	.+6      	; 0x2428 <dtoa_prf+0x1ca>
    2422:	12 1b       	sub	r17, r18
    2424:	21 2f       	mov	r18, r17
    2426:	01 c0       	rjmp	.+2      	; 0x242a <dtoa_prf+0x1cc>
    2428:	20 e0       	ldi	r18, 0x00	; 0
    242a:	3e 2d       	mov	r19, r14
    242c:	38 71       	andi	r19, 0x18	; 24
    242e:	59 f4       	brne	.+22     	; 0x2446 <dtoa_prf+0x1e8>
    2430:	d6 01       	movw	r26, r12
    2432:	32 2f       	mov	r19, r18
    2434:	60 e2       	ldi	r22, 0x20	; 32
    2436:	33 23       	and	r19, r19
    2438:	19 f0       	breq	.+6      	; 0x2440 <dtoa_prf+0x1e2>
    243a:	6d 93       	st	X+, r22
    243c:	31 50       	subi	r19, 0x01	; 1
    243e:	fb cf       	rjmp	.-10     	; 0x2436 <dtoa_prf+0x1d8>
    2440:	c2 0e       	add	r12, r18
    2442:	d1 1c       	adc	r13, r1
    2444:	20 e0       	ldi	r18, 0x00	; 0
    2446:	ff 23       	and	r31, r31
    2448:	31 f0       	breq	.+12     	; 0x2456 <dtoa_prf+0x1f8>
    244a:	d6 01       	movw	r26, r12
    244c:	9c 93       	st	X, r25
    244e:	b6 01       	movw	r22, r12
    2450:	6f 5f       	subi	r22, 0xFF	; 255
    2452:	7f 4f       	sbci	r23, 0xFF	; 255
    2454:	6b 01       	movw	r12, r22
    2456:	e1 11       	cpse	r30, r1
    2458:	0b c0       	rjmp	.+22     	; 0x2470 <dtoa_prf+0x212>
    245a:	f6 01       	movw	r30, r12
    245c:	92 2f       	mov	r25, r18
    245e:	30 e3       	ldi	r19, 0x30	; 48
    2460:	99 23       	and	r25, r25
    2462:	19 f0       	breq	.+6      	; 0x246a <dtoa_prf+0x20c>
    2464:	31 93       	st	Z+, r19
    2466:	91 50       	subi	r25, 0x01	; 1
    2468:	fb cf       	rjmp	.-10     	; 0x2460 <dtoa_prf+0x202>
    246a:	c2 0e       	add	r12, r18
    246c:	d1 1c       	adc	r13, r1
    246e:	20 e0       	ldi	r18, 0x00	; 0
    2470:	9f 2d       	mov	r25, r15
    2472:	94 0f       	add	r25, r20
    2474:	3a 81       	ldd	r19, Y+2	; 0x02
    2476:	78 2f       	mov	r23, r24
    2478:	70 71       	andi	r23, 0x10	; 16
    247a:	a7 2e       	mov	r10, r23
    247c:	84 ff       	sbrs	r24, 4
    247e:	03 c0       	rjmp	.+6      	; 0x2486 <dtoa_prf+0x228>
    2480:	31 33       	cpi	r19, 0x31	; 49
    2482:	09 f4       	brne	.+2      	; 0x2486 <dtoa_prf+0x228>
    2484:	91 50       	subi	r25, 0x01	; 1
    2486:	19 16       	cp	r1, r25
    2488:	24 f4       	brge	.+8      	; 0x2492 <dtoa_prf+0x234>
    248a:	99 30       	cpi	r25, 0x09	; 9
    248c:	18 f0       	brcs	.+6      	; 0x2494 <dtoa_prf+0x236>
    248e:	98 e0       	ldi	r25, 0x08	; 8
    2490:	01 c0       	rjmp	.+2      	; 0x2494 <dtoa_prf+0x236>
    2492:	91 e0       	ldi	r25, 0x01	; 1
    2494:	e4 2f       	mov	r30, r20
    2496:	85 2f       	mov	r24, r21
    2498:	57 ff       	sbrs	r21, 7
    249a:	02 c0       	rjmp	.+4      	; 0x24a0 <dtoa_prf+0x242>
    249c:	e0 e0       	ldi	r30, 0x00	; 0
    249e:	80 e0       	ldi	r24, 0x00	; 0
    24a0:	6e 2f       	mov	r22, r30
    24a2:	78 2f       	mov	r23, r24
    24a4:	e0 e0       	ldi	r30, 0x00	; 0
    24a6:	f0 e0       	ldi	r31, 0x00	; 0
    24a8:	ae e2       	ldi	r26, 0x2E	; 46
    24aa:	9a 2e       	mov	r9, r26
    24ac:	3a 01       	movw	r6, r20
    24ae:	69 1a       	sub	r6, r25
    24b0:	71 08       	sbc	r7, r1
    24b2:	2a 01       	movw	r4, r20
    24b4:	46 1a       	sub	r4, r22
    24b6:	57 0a       	sbc	r5, r23
    24b8:	0b 2d       	mov	r16, r11
    24ba:	10 e0       	ldi	r17, 0x00	; 0
    24bc:	11 95       	neg	r17
    24be:	01 95       	neg	r16
    24c0:	11 09       	sbc	r17, r1
    24c2:	6f 3f       	cpi	r22, 0xFF	; 255
    24c4:	8f ef       	ldi	r24, 0xFF	; 255
    24c6:	78 07       	cpc	r23, r24
    24c8:	29 f4       	brne	.+10     	; 0x24d4 <dtoa_prf+0x276>
    24ca:	d6 01       	movw	r26, r12
    24cc:	9c 92       	st	X, r9
    24ce:	c6 01       	movw	r24, r12
    24d0:	01 96       	adiw	r24, 0x01	; 1
    24d2:	6c 01       	movw	r12, r24
    24d4:	46 17       	cp	r20, r22
    24d6:	57 07       	cpc	r21, r23
    24d8:	84 f0       	brlt	.+32     	; 0x24fa <dtoa_prf+0x29c>
    24da:	66 16       	cp	r6, r22
    24dc:	77 06       	cpc	r7, r23
    24de:	6c f4       	brge	.+26     	; 0x24fa <dtoa_prf+0x29c>
    24e0:	7f 01       	movw	r14, r30
    24e2:	e4 0c       	add	r14, r4
    24e4:	f5 1c       	adc	r15, r5
    24e6:	a1 e0       	ldi	r26, 0x01	; 1
    24e8:	b0 e0       	ldi	r27, 0x00	; 0
    24ea:	ac 0f       	add	r26, r28
    24ec:	bd 1f       	adc	r27, r29
    24ee:	ea 0e       	add	r14, r26
    24f0:	fb 1e       	adc	r15, r27
    24f2:	d7 01       	movw	r26, r14
    24f4:	11 96       	adiw	r26, 0x01	; 1
    24f6:	bc 90       	ld	r11, X
    24f8:	02 c0       	rjmp	.+4      	; 0x24fe <dtoa_prf+0x2a0>
    24fa:	90 e3       	ldi	r25, 0x30	; 48
    24fc:	b9 2e       	mov	r11, r25
    24fe:	61 50       	subi	r22, 0x01	; 1
    2500:	71 09       	sbc	r23, r1
    2502:	31 96       	adiw	r30, 0x01	; 1
    2504:	c6 01       	movw	r24, r12
    2506:	01 96       	adiw	r24, 0x01	; 1
    2508:	7c 01       	movw	r14, r24
    250a:	60 17       	cp	r22, r16
    250c:	71 07       	cpc	r23, r17
    250e:	24 f0       	brlt	.+8      	; 0x2518 <dtoa_prf+0x2ba>
    2510:	d6 01       	movw	r26, r12
    2512:	bc 92       	st	X, r11
    2514:	6c 01       	movw	r12, r24
    2516:	d5 cf       	rjmp	.-86     	; 0x24c2 <dtoa_prf+0x264>
    2518:	64 17       	cp	r22, r20
    251a:	75 07       	cpc	r23, r21
    251c:	41 f4       	brne	.+16     	; 0x252e <dtoa_prf+0x2d0>
    251e:	36 33       	cpi	r19, 0x36	; 54
    2520:	20 f4       	brcc	.+8      	; 0x252a <dtoa_prf+0x2cc>
    2522:	35 33       	cpi	r19, 0x35	; 53
    2524:	21 f4       	brne	.+8      	; 0x252e <dtoa_prf+0x2d0>
    2526:	a1 10       	cpse	r10, r1
    2528:	02 c0       	rjmp	.+4      	; 0x252e <dtoa_prf+0x2d0>
    252a:	81 e3       	ldi	r24, 0x31	; 49
    252c:	b8 2e       	mov	r11, r24
    252e:	f6 01       	movw	r30, r12
    2530:	b0 82       	st	Z, r11
    2532:	f7 01       	movw	r30, r14
    2534:	82 2f       	mov	r24, r18
    2536:	90 e2       	ldi	r25, 0x20	; 32
    2538:	88 23       	and	r24, r24
    253a:	19 f0       	breq	.+6      	; 0x2542 <dtoa_prf+0x2e4>
    253c:	91 93       	st	Z+, r25
    253e:	81 50       	subi	r24, 0x01	; 1
    2540:	fb cf       	rjmp	.-10     	; 0x2538 <dtoa_prf+0x2da>
    2542:	f7 01       	movw	r30, r14
    2544:	e2 0f       	add	r30, r18
    2546:	f1 1d       	adc	r31, r1
    2548:	10 82       	st	Z, r1
    254a:	80 e0       	ldi	r24, 0x00	; 0
    254c:	90 e0       	ldi	r25, 0x00	; 0
    254e:	29 96       	adiw	r28, 0x09	; 9
    2550:	0f b6       	in	r0, 0x3f	; 63
    2552:	f8 94       	cli
    2554:	de bf       	out	0x3e, r29	; 62
    2556:	0f be       	out	0x3f, r0	; 63
    2558:	cd bf       	out	0x3d, r28	; 61
    255a:	df 91       	pop	r29
    255c:	cf 91       	pop	r28
    255e:	1f 91       	pop	r17
    2560:	0f 91       	pop	r16
    2562:	ff 90       	pop	r15
    2564:	ef 90       	pop	r14
    2566:	df 90       	pop	r13
    2568:	cf 90       	pop	r12
    256a:	bf 90       	pop	r11
    256c:	af 90       	pop	r10
    256e:	9f 90       	pop	r9
    2570:	7f 90       	pop	r7
    2572:	6f 90       	pop	r6
    2574:	5f 90       	pop	r5
    2576:	4f 90       	pop	r4
    2578:	08 95       	ret

0000257a <__ftoa_engine>:
    257a:	28 30       	cpi	r18, 0x08	; 8
    257c:	08 f0       	brcs	.+2      	; 0x2580 <__ftoa_engine+0x6>
    257e:	27 e0       	ldi	r18, 0x07	; 7
    2580:	33 27       	eor	r19, r19
    2582:	da 01       	movw	r26, r20
    2584:	99 0f       	add	r25, r25
    2586:	31 1d       	adc	r19, r1
    2588:	87 fd       	sbrc	r24, 7
    258a:	91 60       	ori	r25, 0x01	; 1
    258c:	00 96       	adiw	r24, 0x00	; 0
    258e:	61 05       	cpc	r22, r1
    2590:	71 05       	cpc	r23, r1
    2592:	39 f4       	brne	.+14     	; 0x25a2 <__ftoa_engine+0x28>
    2594:	32 60       	ori	r19, 0x02	; 2
    2596:	2e 5f       	subi	r18, 0xFE	; 254
    2598:	3d 93       	st	X+, r19
    259a:	30 e3       	ldi	r19, 0x30	; 48
    259c:	2a 95       	dec	r18
    259e:	e1 f7       	brne	.-8      	; 0x2598 <__ftoa_engine+0x1e>
    25a0:	08 95       	ret
    25a2:	9f 3f       	cpi	r25, 0xFF	; 255
    25a4:	30 f0       	brcs	.+12     	; 0x25b2 <__ftoa_engine+0x38>
    25a6:	80 38       	cpi	r24, 0x80	; 128
    25a8:	71 05       	cpc	r23, r1
    25aa:	61 05       	cpc	r22, r1
    25ac:	09 f0       	breq	.+2      	; 0x25b0 <__ftoa_engine+0x36>
    25ae:	3c 5f       	subi	r19, 0xFC	; 252
    25b0:	3c 5f       	subi	r19, 0xFC	; 252
    25b2:	3d 93       	st	X+, r19
    25b4:	91 30       	cpi	r25, 0x01	; 1
    25b6:	08 f0       	brcs	.+2      	; 0x25ba <__ftoa_engine+0x40>
    25b8:	80 68       	ori	r24, 0x80	; 128
    25ba:	91 1d       	adc	r25, r1
    25bc:	df 93       	push	r29
    25be:	cf 93       	push	r28
    25c0:	1f 93       	push	r17
    25c2:	0f 93       	push	r16
    25c4:	ff 92       	push	r15
    25c6:	ef 92       	push	r14
    25c8:	19 2f       	mov	r17, r25
    25ca:	98 7f       	andi	r25, 0xF8	; 248
    25cc:	96 95       	lsr	r25
    25ce:	e9 2f       	mov	r30, r25
    25d0:	96 95       	lsr	r25
    25d2:	96 95       	lsr	r25
    25d4:	e9 0f       	add	r30, r25
    25d6:	ff 27       	eor	r31, r31
    25d8:	e2 55       	subi	r30, 0x52	; 82
    25da:	ff 4f       	sbci	r31, 0xFF	; 255
    25dc:	99 27       	eor	r25, r25
    25de:	33 27       	eor	r19, r19
    25e0:	ee 24       	eor	r14, r14
    25e2:	ff 24       	eor	r15, r15
    25e4:	a7 01       	movw	r20, r14
    25e6:	e7 01       	movw	r28, r14
    25e8:	05 90       	lpm	r0, Z+
    25ea:	08 94       	sec
    25ec:	07 94       	ror	r0
    25ee:	28 f4       	brcc	.+10     	; 0x25fa <__ftoa_engine+0x80>
    25f0:	36 0f       	add	r19, r22
    25f2:	e7 1e       	adc	r14, r23
    25f4:	f8 1e       	adc	r15, r24
    25f6:	49 1f       	adc	r20, r25
    25f8:	51 1d       	adc	r21, r1
    25fa:	66 0f       	add	r22, r22
    25fc:	77 1f       	adc	r23, r23
    25fe:	88 1f       	adc	r24, r24
    2600:	99 1f       	adc	r25, r25
    2602:	06 94       	lsr	r0
    2604:	a1 f7       	brne	.-24     	; 0x25ee <__ftoa_engine+0x74>
    2606:	05 90       	lpm	r0, Z+
    2608:	07 94       	ror	r0
    260a:	28 f4       	brcc	.+10     	; 0x2616 <__ftoa_engine+0x9c>
    260c:	e7 0e       	add	r14, r23
    260e:	f8 1e       	adc	r15, r24
    2610:	49 1f       	adc	r20, r25
    2612:	56 1f       	adc	r21, r22
    2614:	c1 1d       	adc	r28, r1
    2616:	77 0f       	add	r23, r23
    2618:	88 1f       	adc	r24, r24
    261a:	99 1f       	adc	r25, r25
    261c:	66 1f       	adc	r22, r22
    261e:	06 94       	lsr	r0
    2620:	a1 f7       	brne	.-24     	; 0x260a <__ftoa_engine+0x90>
    2622:	05 90       	lpm	r0, Z+
    2624:	07 94       	ror	r0
    2626:	28 f4       	brcc	.+10     	; 0x2632 <__ftoa_engine+0xb8>
    2628:	f8 0e       	add	r15, r24
    262a:	49 1f       	adc	r20, r25
    262c:	56 1f       	adc	r21, r22
    262e:	c7 1f       	adc	r28, r23
    2630:	d1 1d       	adc	r29, r1
    2632:	88 0f       	add	r24, r24
    2634:	99 1f       	adc	r25, r25
    2636:	66 1f       	adc	r22, r22
    2638:	77 1f       	adc	r23, r23
    263a:	06 94       	lsr	r0
    263c:	a1 f7       	brne	.-24     	; 0x2626 <__ftoa_engine+0xac>
    263e:	05 90       	lpm	r0, Z+
    2640:	07 94       	ror	r0
    2642:	20 f4       	brcc	.+8      	; 0x264c <__ftoa_engine+0xd2>
    2644:	49 0f       	add	r20, r25
    2646:	56 1f       	adc	r21, r22
    2648:	c7 1f       	adc	r28, r23
    264a:	d8 1f       	adc	r29, r24
    264c:	99 0f       	add	r25, r25
    264e:	66 1f       	adc	r22, r22
    2650:	77 1f       	adc	r23, r23
    2652:	88 1f       	adc	r24, r24
    2654:	06 94       	lsr	r0
    2656:	a9 f7       	brne	.-22     	; 0x2642 <__ftoa_engine+0xc8>
    2658:	84 91       	lpm	r24, Z
    265a:	10 95       	com	r17
    265c:	17 70       	andi	r17, 0x07	; 7
    265e:	41 f0       	breq	.+16     	; 0x2670 <__ftoa_engine+0xf6>
    2660:	d6 95       	lsr	r29
    2662:	c7 95       	ror	r28
    2664:	57 95       	ror	r21
    2666:	47 95       	ror	r20
    2668:	f7 94       	ror	r15
    266a:	e7 94       	ror	r14
    266c:	1a 95       	dec	r17
    266e:	c1 f7       	brne	.-16     	; 0x2660 <__ftoa_engine+0xe6>
    2670:	e4 e5       	ldi	r30, 0x54	; 84
    2672:	f0 e0       	ldi	r31, 0x00	; 0
    2674:	68 94       	set
    2676:	15 90       	lpm	r1, Z+
    2678:	15 91       	lpm	r17, Z+
    267a:	35 91       	lpm	r19, Z+
    267c:	65 91       	lpm	r22, Z+
    267e:	95 91       	lpm	r25, Z+
    2680:	05 90       	lpm	r0, Z+
    2682:	7f e2       	ldi	r23, 0x2F	; 47
    2684:	73 95       	inc	r23
    2686:	e1 18       	sub	r14, r1
    2688:	f1 0a       	sbc	r15, r17
    268a:	43 0b       	sbc	r20, r19
    268c:	56 0b       	sbc	r21, r22
    268e:	c9 0b       	sbc	r28, r25
    2690:	d0 09       	sbc	r29, r0
    2692:	c0 f7       	brcc	.-16     	; 0x2684 <__ftoa_engine+0x10a>
    2694:	e1 0c       	add	r14, r1
    2696:	f1 1e       	adc	r15, r17
    2698:	43 1f       	adc	r20, r19
    269a:	56 1f       	adc	r21, r22
    269c:	c9 1f       	adc	r28, r25
    269e:	d0 1d       	adc	r29, r0
    26a0:	7e f4       	brtc	.+30     	; 0x26c0 <__ftoa_engine+0x146>
    26a2:	70 33       	cpi	r23, 0x30	; 48
    26a4:	11 f4       	brne	.+4      	; 0x26aa <__ftoa_engine+0x130>
    26a6:	8a 95       	dec	r24
    26a8:	e6 cf       	rjmp	.-52     	; 0x2676 <__ftoa_engine+0xfc>
    26aa:	e8 94       	clt
    26ac:	01 50       	subi	r16, 0x01	; 1
    26ae:	30 f0       	brcs	.+12     	; 0x26bc <__ftoa_engine+0x142>
    26b0:	08 0f       	add	r16, r24
    26b2:	0a f4       	brpl	.+2      	; 0x26b6 <__ftoa_engine+0x13c>
    26b4:	00 27       	eor	r16, r16
    26b6:	02 17       	cp	r16, r18
    26b8:	08 f4       	brcc	.+2      	; 0x26bc <__ftoa_engine+0x142>
    26ba:	20 2f       	mov	r18, r16
    26bc:	23 95       	inc	r18
    26be:	02 2f       	mov	r16, r18
    26c0:	7a 33       	cpi	r23, 0x3A	; 58
    26c2:	28 f0       	brcs	.+10     	; 0x26ce <__ftoa_engine+0x154>
    26c4:	79 e3       	ldi	r23, 0x39	; 57
    26c6:	7d 93       	st	X+, r23
    26c8:	2a 95       	dec	r18
    26ca:	e9 f7       	brne	.-6      	; 0x26c6 <__ftoa_engine+0x14c>
    26cc:	10 c0       	rjmp	.+32     	; 0x26ee <__ftoa_engine+0x174>
    26ce:	7d 93       	st	X+, r23
    26d0:	2a 95       	dec	r18
    26d2:	89 f6       	brne	.-94     	; 0x2676 <__ftoa_engine+0xfc>
    26d4:	06 94       	lsr	r0
    26d6:	97 95       	ror	r25
    26d8:	67 95       	ror	r22
    26da:	37 95       	ror	r19
    26dc:	17 95       	ror	r17
    26de:	17 94       	ror	r1
    26e0:	e1 18       	sub	r14, r1
    26e2:	f1 0a       	sbc	r15, r17
    26e4:	43 0b       	sbc	r20, r19
    26e6:	56 0b       	sbc	r21, r22
    26e8:	c9 0b       	sbc	r28, r25
    26ea:	d0 09       	sbc	r29, r0
    26ec:	98 f0       	brcs	.+38     	; 0x2714 <__ftoa_engine+0x19a>
    26ee:	23 95       	inc	r18
    26f0:	7e 91       	ld	r23, -X
    26f2:	73 95       	inc	r23
    26f4:	7a 33       	cpi	r23, 0x3A	; 58
    26f6:	08 f0       	brcs	.+2      	; 0x26fa <__ftoa_engine+0x180>
    26f8:	70 e3       	ldi	r23, 0x30	; 48
    26fa:	7c 93       	st	X, r23
    26fc:	20 13       	cpse	r18, r16
    26fe:	b8 f7       	brcc	.-18     	; 0x26ee <__ftoa_engine+0x174>
    2700:	7e 91       	ld	r23, -X
    2702:	70 61       	ori	r23, 0x10	; 16
    2704:	7d 93       	st	X+, r23
    2706:	30 f0       	brcs	.+12     	; 0x2714 <__ftoa_engine+0x19a>
    2708:	83 95       	inc	r24
    270a:	71 e3       	ldi	r23, 0x31	; 49
    270c:	7d 93       	st	X+, r23
    270e:	70 e3       	ldi	r23, 0x30	; 48
    2710:	2a 95       	dec	r18
    2712:	e1 f7       	brne	.-8      	; 0x270c <__ftoa_engine+0x192>
    2714:	11 24       	eor	r1, r1
    2716:	ef 90       	pop	r14
    2718:	ff 90       	pop	r15
    271a:	0f 91       	pop	r16
    271c:	1f 91       	pop	r17
    271e:	cf 91       	pop	r28
    2720:	df 91       	pop	r29
    2722:	99 27       	eor	r25, r25
    2724:	87 fd       	sbrc	r24, 7
    2726:	90 95       	com	r25
    2728:	08 95       	ret

0000272a <strnlen_P>:
    272a:	fc 01       	movw	r30, r24
    272c:	05 90       	lpm	r0, Z+
    272e:	61 50       	subi	r22, 0x01	; 1
    2730:	70 40       	sbci	r23, 0x00	; 0
    2732:	01 10       	cpse	r0, r1
    2734:	d8 f7       	brcc	.-10     	; 0x272c <strnlen_P+0x2>
    2736:	80 95       	com	r24
    2738:	90 95       	com	r25
    273a:	8e 0f       	add	r24, r30
    273c:	9f 1f       	adc	r25, r31
    273e:	08 95       	ret

00002740 <strnlen>:
    2740:	fc 01       	movw	r30, r24
    2742:	61 50       	subi	r22, 0x01	; 1
    2744:	70 40       	sbci	r23, 0x00	; 0
    2746:	01 90       	ld	r0, Z+
    2748:	01 10       	cpse	r0, r1
    274a:	d8 f7       	brcc	.-10     	; 0x2742 <strnlen+0x2>
    274c:	80 95       	com	r24
    274e:	90 95       	com	r25
    2750:	8e 0f       	add	r24, r30
    2752:	9f 1f       	adc	r25, r31
    2754:	08 95       	ret

00002756 <fputc>:
    2756:	0f 93       	push	r16
    2758:	1f 93       	push	r17
    275a:	cf 93       	push	r28
    275c:	df 93       	push	r29
    275e:	fb 01       	movw	r30, r22
    2760:	23 81       	ldd	r18, Z+3	; 0x03
    2762:	21 fd       	sbrc	r18, 1
    2764:	03 c0       	rjmp	.+6      	; 0x276c <fputc+0x16>
    2766:	8f ef       	ldi	r24, 0xFF	; 255
    2768:	9f ef       	ldi	r25, 0xFF	; 255
    276a:	28 c0       	rjmp	.+80     	; 0x27bc <fputc+0x66>
    276c:	22 ff       	sbrs	r18, 2
    276e:	16 c0       	rjmp	.+44     	; 0x279c <fputc+0x46>
    2770:	46 81       	ldd	r20, Z+6	; 0x06
    2772:	57 81       	ldd	r21, Z+7	; 0x07
    2774:	24 81       	ldd	r18, Z+4	; 0x04
    2776:	35 81       	ldd	r19, Z+5	; 0x05
    2778:	42 17       	cp	r20, r18
    277a:	53 07       	cpc	r21, r19
    277c:	44 f4       	brge	.+16     	; 0x278e <fputc+0x38>
    277e:	a0 81       	ld	r26, Z
    2780:	b1 81       	ldd	r27, Z+1	; 0x01
    2782:	9d 01       	movw	r18, r26
    2784:	2f 5f       	subi	r18, 0xFF	; 255
    2786:	3f 4f       	sbci	r19, 0xFF	; 255
    2788:	31 83       	std	Z+1, r19	; 0x01
    278a:	20 83       	st	Z, r18
    278c:	8c 93       	st	X, r24
    278e:	26 81       	ldd	r18, Z+6	; 0x06
    2790:	37 81       	ldd	r19, Z+7	; 0x07
    2792:	2f 5f       	subi	r18, 0xFF	; 255
    2794:	3f 4f       	sbci	r19, 0xFF	; 255
    2796:	37 83       	std	Z+7, r19	; 0x07
    2798:	26 83       	std	Z+6, r18	; 0x06
    279a:	10 c0       	rjmp	.+32     	; 0x27bc <fputc+0x66>
    279c:	eb 01       	movw	r28, r22
    279e:	09 2f       	mov	r16, r25
    27a0:	18 2f       	mov	r17, r24
    27a2:	00 84       	ldd	r0, Z+8	; 0x08
    27a4:	f1 85       	ldd	r31, Z+9	; 0x09
    27a6:	e0 2d       	mov	r30, r0
    27a8:	09 95       	icall
    27aa:	89 2b       	or	r24, r25
    27ac:	e1 f6       	brne	.-72     	; 0x2766 <fputc+0x10>
    27ae:	8e 81       	ldd	r24, Y+6	; 0x06
    27b0:	9f 81       	ldd	r25, Y+7	; 0x07
    27b2:	01 96       	adiw	r24, 0x01	; 1
    27b4:	9f 83       	std	Y+7, r25	; 0x07
    27b6:	8e 83       	std	Y+6, r24	; 0x06
    27b8:	81 2f       	mov	r24, r17
    27ba:	90 2f       	mov	r25, r16
    27bc:	df 91       	pop	r29
    27be:	cf 91       	pop	r28
    27c0:	1f 91       	pop	r17
    27c2:	0f 91       	pop	r16
    27c4:	08 95       	ret

000027c6 <__ultoa_invert>:
    27c6:	fa 01       	movw	r30, r20
    27c8:	aa 27       	eor	r26, r26
    27ca:	28 30       	cpi	r18, 0x08	; 8
    27cc:	51 f1       	breq	.+84     	; 0x2822 <__ultoa_invert+0x5c>
    27ce:	20 31       	cpi	r18, 0x10	; 16
    27d0:	81 f1       	breq	.+96     	; 0x2832 <__ultoa_invert+0x6c>
    27d2:	e8 94       	clt
    27d4:	6f 93       	push	r22
    27d6:	6e 7f       	andi	r22, 0xFE	; 254
    27d8:	6e 5f       	subi	r22, 0xFE	; 254
    27da:	7f 4f       	sbci	r23, 0xFF	; 255
    27dc:	8f 4f       	sbci	r24, 0xFF	; 255
    27de:	9f 4f       	sbci	r25, 0xFF	; 255
    27e0:	af 4f       	sbci	r26, 0xFF	; 255
    27e2:	b1 e0       	ldi	r27, 0x01	; 1
    27e4:	3e d0       	rcall	.+124    	; 0x2862 <__ultoa_invert+0x9c>
    27e6:	b4 e0       	ldi	r27, 0x04	; 4
    27e8:	3c d0       	rcall	.+120    	; 0x2862 <__ultoa_invert+0x9c>
    27ea:	67 0f       	add	r22, r23
    27ec:	78 1f       	adc	r23, r24
    27ee:	89 1f       	adc	r24, r25
    27f0:	9a 1f       	adc	r25, r26
    27f2:	a1 1d       	adc	r26, r1
    27f4:	68 0f       	add	r22, r24
    27f6:	79 1f       	adc	r23, r25
    27f8:	8a 1f       	adc	r24, r26
    27fa:	91 1d       	adc	r25, r1
    27fc:	a1 1d       	adc	r26, r1
    27fe:	6a 0f       	add	r22, r26
    2800:	71 1d       	adc	r23, r1
    2802:	81 1d       	adc	r24, r1
    2804:	91 1d       	adc	r25, r1
    2806:	a1 1d       	adc	r26, r1
    2808:	20 d0       	rcall	.+64     	; 0x284a <__ultoa_invert+0x84>
    280a:	09 f4       	brne	.+2      	; 0x280e <__ultoa_invert+0x48>
    280c:	68 94       	set
    280e:	3f 91       	pop	r19
    2810:	2a e0       	ldi	r18, 0x0A	; 10
    2812:	26 9f       	mul	r18, r22
    2814:	11 24       	eor	r1, r1
    2816:	30 19       	sub	r19, r0
    2818:	30 5d       	subi	r19, 0xD0	; 208
    281a:	31 93       	st	Z+, r19
    281c:	de f6       	brtc	.-74     	; 0x27d4 <__ultoa_invert+0xe>
    281e:	cf 01       	movw	r24, r30
    2820:	08 95       	ret
    2822:	46 2f       	mov	r20, r22
    2824:	47 70       	andi	r20, 0x07	; 7
    2826:	40 5d       	subi	r20, 0xD0	; 208
    2828:	41 93       	st	Z+, r20
    282a:	b3 e0       	ldi	r27, 0x03	; 3
    282c:	0f d0       	rcall	.+30     	; 0x284c <__ultoa_invert+0x86>
    282e:	c9 f7       	brne	.-14     	; 0x2822 <__ultoa_invert+0x5c>
    2830:	f6 cf       	rjmp	.-20     	; 0x281e <__ultoa_invert+0x58>
    2832:	46 2f       	mov	r20, r22
    2834:	4f 70       	andi	r20, 0x0F	; 15
    2836:	40 5d       	subi	r20, 0xD0	; 208
    2838:	4a 33       	cpi	r20, 0x3A	; 58
    283a:	18 f0       	brcs	.+6      	; 0x2842 <__ultoa_invert+0x7c>
    283c:	49 5d       	subi	r20, 0xD9	; 217
    283e:	31 fd       	sbrc	r19, 1
    2840:	40 52       	subi	r20, 0x20	; 32
    2842:	41 93       	st	Z+, r20
    2844:	02 d0       	rcall	.+4      	; 0x284a <__ultoa_invert+0x84>
    2846:	a9 f7       	brne	.-22     	; 0x2832 <__ultoa_invert+0x6c>
    2848:	ea cf       	rjmp	.-44     	; 0x281e <__ultoa_invert+0x58>
    284a:	b4 e0       	ldi	r27, 0x04	; 4
    284c:	a6 95       	lsr	r26
    284e:	97 95       	ror	r25
    2850:	87 95       	ror	r24
    2852:	77 95       	ror	r23
    2854:	67 95       	ror	r22
    2856:	ba 95       	dec	r27
    2858:	c9 f7       	brne	.-14     	; 0x284c <__ultoa_invert+0x86>
    285a:	00 97       	sbiw	r24, 0x00	; 0
    285c:	61 05       	cpc	r22, r1
    285e:	71 05       	cpc	r23, r1
    2860:	08 95       	ret
    2862:	9b 01       	movw	r18, r22
    2864:	ac 01       	movw	r20, r24
    2866:	0a 2e       	mov	r0, r26
    2868:	06 94       	lsr	r0
    286a:	57 95       	ror	r21
    286c:	47 95       	ror	r20
    286e:	37 95       	ror	r19
    2870:	27 95       	ror	r18
    2872:	ba 95       	dec	r27
    2874:	c9 f7       	brne	.-14     	; 0x2868 <__ultoa_invert+0xa2>
    2876:	62 0f       	add	r22, r18
    2878:	73 1f       	adc	r23, r19
    287a:	84 1f       	adc	r24, r20
    287c:	95 1f       	adc	r25, r21
    287e:	a0 1d       	adc	r26, r0
    2880:	08 95       	ret

00002882 <__prologue_saves__>:
    2882:	2f 92       	push	r2
    2884:	3f 92       	push	r3
    2886:	4f 92       	push	r4
    2888:	5f 92       	push	r5
    288a:	6f 92       	push	r6
    288c:	7f 92       	push	r7
    288e:	8f 92       	push	r8
    2890:	9f 92       	push	r9
    2892:	af 92       	push	r10
    2894:	bf 92       	push	r11
    2896:	cf 92       	push	r12
    2898:	df 92       	push	r13
    289a:	ef 92       	push	r14
    289c:	ff 92       	push	r15
    289e:	0f 93       	push	r16
    28a0:	1f 93       	push	r17
    28a2:	cf 93       	push	r28
    28a4:	df 93       	push	r29
    28a6:	cd b7       	in	r28, 0x3d	; 61
    28a8:	de b7       	in	r29, 0x3e	; 62
    28aa:	ca 1b       	sub	r28, r26
    28ac:	db 0b       	sbc	r29, r27
    28ae:	0f b6       	in	r0, 0x3f	; 63
    28b0:	f8 94       	cli
    28b2:	de bf       	out	0x3e, r29	; 62
    28b4:	0f be       	out	0x3f, r0	; 63
    28b6:	cd bf       	out	0x3d, r28	; 61
    28b8:	09 94       	ijmp

000028ba <__epilogue_restores__>:
    28ba:	2a 88       	ldd	r2, Y+18	; 0x12
    28bc:	39 88       	ldd	r3, Y+17	; 0x11
    28be:	48 88       	ldd	r4, Y+16	; 0x10
    28c0:	5f 84       	ldd	r5, Y+15	; 0x0f
    28c2:	6e 84       	ldd	r6, Y+14	; 0x0e
    28c4:	7d 84       	ldd	r7, Y+13	; 0x0d
    28c6:	8c 84       	ldd	r8, Y+12	; 0x0c
    28c8:	9b 84       	ldd	r9, Y+11	; 0x0b
    28ca:	aa 84       	ldd	r10, Y+10	; 0x0a
    28cc:	b9 84       	ldd	r11, Y+9	; 0x09
    28ce:	c8 84       	ldd	r12, Y+8	; 0x08
    28d0:	df 80       	ldd	r13, Y+7	; 0x07
    28d2:	ee 80       	ldd	r14, Y+6	; 0x06
    28d4:	fd 80       	ldd	r15, Y+5	; 0x05
    28d6:	0c 81       	ldd	r16, Y+4	; 0x04
    28d8:	1b 81       	ldd	r17, Y+3	; 0x03
    28da:	aa 81       	ldd	r26, Y+2	; 0x02
    28dc:	b9 81       	ldd	r27, Y+1	; 0x01
    28de:	ce 0f       	add	r28, r30
    28e0:	d1 1d       	adc	r29, r1
    28e2:	0f b6       	in	r0, 0x3f	; 63
    28e4:	f8 94       	cli
    28e6:	de bf       	out	0x3e, r29	; 62
    28e8:	0f be       	out	0x3f, r0	; 63
    28ea:	cd bf       	out	0x3d, r28	; 61
    28ec:	ed 01       	movw	r28, r26
    28ee:	08 95       	ret

000028f0 <_exit>:
    28f0:	f8 94       	cli

000028f2 <__stop_program>:
    28f2:	ff cf       	rjmp	.-2      	; 0x28f2 <__stop_program>
